(dp1
S'output'
p2
S"<type 'exceptions.NameError'> name 'middle_column' is not defined"
p3
sS'layer'
p4
S'/Users/sidneyeubanks/Google Drive/Developer/Dropshipping/web2py/applications/Dropshipping/views/default/index.html'
p5
sS'code'
p6
S'left_sidebar_enabled,right_sidebar_enabled=False,(\'message\' in globals())\nresponse.write(\'\\n\', escape=False)\nresponse.write(\'<!DOCTYPE html>\\n<!--[if (gt IE 9)|!(IE)]><!--> <html class="no-js" lang="\', escape=False)\nresponse.write(T.accepted_language or \'en\')\nresponse.write(\'"> <!--<![endif]-->\\n  <head>\\n\\n    <meta charset="utf-8">\\n    <!-- www.phpied.com/conditional-comments-block-downloads/ -->\\n    <!-- Always force latest IE rendering engine\\n         (even in intranet) & Chrome Frame\\n         Remove this if you use the .htaccess -->\\n    <meta http-equiv="X-UA-Compatible" content="IE=edge\', escape=False)\nresponse.write(not request.is_local and \',chrome=1\' or \'\')\nresponse.write(\'">\\n    <!--  Mobile Viewport Fix\\n          j.mp/mobileviewport & davidbcalhoun.com/2010/viewport-metatag\\n          device-width: Occupy full width of the screen in its current orientation\\n          initial-scale = 1.0 retains dimensions instead of zooming out if page height > device height\\n          user-scalable = yes allows the user to zoom in -->\\n    <meta name="viewport" content="width=device-width, initial-scale=1.0">\\n    <title>\', escape=False)\nresponse.write(response.title or request.application)\nresponse.write(\'</title>\\n    <!-- http://dev.w3.org/html5/markup/meta.name.html -->\\n    <meta name="application-name" content="\', escape=False)\nresponse.write(request.application)\nresponse.write(\'">\\n    <!-- Speaking of Google, don\\\'t forget to set your site up:\\n         http://google.com/webmasters -->\\n    <meta name="google-site-verification" content="">\\n    <!-- include stylesheets -->\\n    <link rel="stylesheet" href="\', escape=False)\nresponse.write(URL(\'static\',\'css/bootstrap.min.css\'))\nresponse.write(\'"/>\\n    <link rel="stylesheet" href="\', escape=False)\nresponse.write(URL(\'static\',\'css/web2py-bootstrap3.css\'))\nresponse.write(\'"/>\\n    <link rel="shortcut icon" href="\', escape=False)\nresponse.write(URL(\'static\',\'images/favicon.ico\'))\nresponse.write(\'" type="image/x-icon">\\n    <link rel="apple-touch-icon" href="\', escape=False)\nresponse.write(URL(\'static\',\'images/favicon.png\'))\nresponse.write(\'">\\n    <!-- OWL CAROUSEL STYLESHEETS -->\\n    <link rel="stylesheet" href="\', escape=False)\nresponse.write(URL(\'static\',\'css/owl.carousel.css\'))\nresponse.write(\'"/>\\n    <link rel="stylesheet" href="\', escape=False)\nresponse.write(URL(\'static\',\'css/owl.theme.css\'))\nresponse.write(\'"/>\\n    <link rel="stylesheet" href="\', escape=False)\nresponse.write(URL(\'static\',\'css/style.css\'))\nresponse.write(\'"/>\\n\\n    <!-- All JavaScript at the bottom, except for Modernizr which enables\\n         HTML5 elements & feature detects -->\\n    <script src="\', escape=False)\nresponse.write(URL(\'static\',\'js/modernizr-2.8.3.min.js\'))\nresponse.write(\'"></script>\\n    <!--[if lt IE 9]>\\n        <script src="\', escape=False)\nresponse.write(URL(\'static\',\'js/respond-1.4.2.min.js\'))\nresponse.write(\'"></script>\\n    <![endif]-->\\n    <!-- Favicons -->\\n    \', escape=False)\nresponse.write(\'<script type="text/javascript"><!--\\n    // These variables are used by the web2py_ajax_init function in web2py_ajax.js (which is loaded below).\\n    var w2p_ajax_confirm_message = "\', escape=False)\nresponse.write(T(\'Are you sure you want to delete this object?\'))\nresponse.write(\'";\\n    var w2p_ajax_disable_with_message = "\', escape=False)\nresponse.write(T(\'Working...\'))\nresponse.write(\'";\\n    var w2p_ajax_date_format = "\', escape=False)\nresponse.write(T(\'%Y-%m-%d\'))\nresponse.write(\'";\\n    var w2p_ajax_datetime_format = "\', escape=False)\nresponse.write(T(\'%Y-%m-%d %H:%M:%S\'))\nresponse.write(\'";\\n    var ajax_error_500 = \\\'\', escape=False)\nresponse.write(T.M(\'An error occured, please [[reload %s]] the page\') % URL(args=request.args, vars=request.get_vars))\nresponse.write("\'\\n    //--></script>\\n", escape=False)\nresponse.files.insert(0,URL(\'static\',\'js/jquery.js\'))\nresponse.files.insert(1,URL(\'static\',\'css/calendar.css\'))\nresponse.files.insert(2,URL(\'static\',\'js/calendar.js\'))\nresponse.files.insert(3,URL(\'static\',\'js/web2py.js\'))\nresponse.include_meta()\nresponse.include_files()\nresponse.write(\'\\n\', escape=False)\nresponse.write(\' <!-- this includes jquery.js, calendar.js/.css and web2py.js -->\\n    \', escape=False)\nresponse.write(\'\\n    \', escape=False)\n\'\'\'\\n    # using sidebars need to know what sidebar you want to use\\n    mc0 = \'col-md-12\'\\n    mc1 = \'col-md-9\'\\n    mc2 = \'col-md-6\'\\n    left_sidebar_enabled = globals().get(\'left_sidebar_enabled\', False)\\n    right_sidebar_enabled = globals().get(\'right_sidebar_enabled\', True)\\n    middle_column = {0: mc0, 1: mc1, 2: mc2}[\\n    (left_sidebar_enabled and 1 or 0)+(right_sidebar_enabled and 1 or 0)]\\n    \'\'\'\nresponse.write(\'\\n  </head>\\n  <body>\\n    <!--[if lt IE 8]><p class="browserupgrade">You are using an <strong>outdated</strong> browser. Please <a href="http://browsehappy.com/">upgrade your browser</a> to improve your experience.</p><![endif]-->\\n    <div class="w2p_flash alert alert-dismissable">\', escape=False)\nresponse.write(response.flash or \'\')\nresponse.write(\'</div>\\n    <!-- Navbar ======================================= -->\\n    <nav class="navbar navbar-default navbar-fixed-top" role="navigation">\\n      <div class="container-fluid">\\n        <div class="navbar-header">\\n          <button type="button" class="navbar-toggle" data-toggle="collapse" data-target=".navbar-collapse">\\n            <span class="sr-only">Toggle navigation</span>\\n            <span class="icon-bar"></span>\\n            <span class="icon-bar"></span>\\n            <span class="icon-bar"></span>\\n          </button>\\n          \', escape=False)\nresponse.write(response.logo or \'\')\nresponse.write(\'\\n        </div>\\n        <div class="collapse navbar-collapse navbar-ex1-collapse">\\n          <ul class="nav navbar-nav navbar-right">\\n            \', escape=False)\nresponse.write(\'auth\' in globals() and auth.navbar(\'Welcome\',mode=\'dropdown\') or \'\')\nresponse.write(\'\\n          </ul>\\n          \', escape=False)\nif response.menu:\n    response.write(\'\\n          \', escape=False)\n    response.write(MENU(response.menu, _class=\'nav navbar-nav\',li_class=\'dropdown\',ul_class=\'dropdown-menu\'))\n    response.write(\'\\n          \', escape=False)\n    pass\nresponse.write(\'\\n        </div>\\n      </div>\\n    </nav>\\n    <!-- Masthead ===================================== -->\\n    \', escape=False)\nresponse.write(\'\\n        Nav Bar\\n    \', escape=False)\nresponse.write(\'\\n    <!-- Main ========================================= -->\\n\\n    \', escape=False)\nresponse.write(\'\\n\\n    <div class="owl-carousel" id="feature-slider" >\\n        <div class="item"><img src="\', escape=False)\nresponse.write(URL(\'static\', \'images/fullimage1.jpg\'))\nresponse.write(\'" alt="Owl Image"></div>\\n        <div class="item"><img src="\', escape=False)\nresponse.write(URL(\'static\', \'images/fullimage2.jpg\'))\nresponse.write(\'" alt="Owl Image"></div>\\n        <div class="item"><img src="\', escape=False)\nresponse.write(URL(\'static\', \'images/fullimage3.jpg\'))\nresponse.write(\'" alt="Owl Image"></div>\\n        <div class="item"><img src="\', escape=False)\nresponse.write(URL(\'static\', \'images/fullimage4.jpg\'))\nresponse.write(\'" alt="Owl Image"></div>\\n        <div class="item"><img src="\', escape=False)\nresponse.write(URL(\'static\', \'images/fullimage5.jpg\'))\nresponse.write(\'" alt="Owl Image"></div>\\n        <div class="item"><img src="\', escape=False)\nresponse.write(URL(\'static\', \'images/fullimage6.jpg\'))\nresponse.write(\'" alt="Owl Image"></div>\\n        <div class="item"><img src="\', escape=False)\nresponse.write(URL(\'static\', \'images/fullimage7.jpg\'))\nresponse.write(\'" alt="Owl Image"></div>\\n    </div>\\n\\n    <div class="smaller-wrapper">\\n        <div class="category-title" style="color: #282828; padding-left: 50px"><h3>Category 1</h3></div>\\n        <div class="owl-carousel" id="product-carousel" style="padding: 0px 50px;">\\n            <div class="item">\\n                <img src="\', escape=False)\nresponse.write(URL(\'static\', \'images/owl1.jpg\'))\nresponse.write(\'" alt="Owl Image">\\n                <h4 style="margin: 0; padding: 5px;">PNY GeForce GTX 1060 DirectX 12</h4>\\n                <i style="margin: 0; padding: 5px;">Free Shipping</i><br>\\n                <strong style="margin: 0; padding: 5px;">$312.99</strong>\\n            </div>\\n            <div class="item">\\n                <img src="\', escape=False)\nresponse.write(URL(\'static\', \'images/owl2.jpg\'))\nresponse.write(\'" alt="Owl Image">\\n                <h4 style="margin: 0; padding: 5px;">PNY GeForce GTX 1060 DirectX 12</h4>\\n                <i style="margin: 0; padding: 5px;">Free Shipping</i><br>\\n                <strong style="margin: 0; padding: 5px;">$312.99</strong>\\n            </div>\\n            <div class="item">\\n                <img src="\', escape=False)\nresponse.write(URL(\'static\', \'images/owl3.jpg\'))\nresponse.write(\'" alt="Owl Image">\\n                <h4 style="margin: 0; padding: 5px;">PNY GeForce GTX 1060 DirectX 12</h4>\\n                <i style="margin: 0; padding: 5px;">Free Shipping</i><br>\\n                <strong style="margin: 0; padding: 5px;">$312.99</strong>\\n            </div>\\n            <div class="item">\\n                <img src="\', escape=False)\nresponse.write(URL(\'static\', \'images/owl4.jpg\'))\nresponse.write(\'" alt="Owl Image">\\n                <h4 style="margin: 0; padding: 5px;">PNY GeForce GTX 1060 DirectX 12</h4>\\n                <i style="margin: 0; padding: 5px;">Free Shipping</i><br>\\n                <strong style="margin: 0; padding: 5px;">$312.99</strong>\\n            </div>\\n            <div class="item">\\n                <img src="\', escape=False)\nresponse.write(URL(\'static\', \'images/owl5.jpg\'))\nresponse.write(\'" alt="Owl Image">\\n                <h4 style="margin: 0; padding: 5px;">PNY GeForce GTX 1060 DirectX 12</h4>\\n                <i style="margin: 0; padding: 5px;">Free Shipping</i><br>\\n                <strong style="margin: 0; padding: 5px;">$312.99</strong>\\n            </div>\\n            <div class="item">\\n                <img src="\', escape=False)\nresponse.write(URL(\'static\', \'images/owl6.jpg\'))\nresponse.write(\'" alt="Owl Image">\\n                <h4 style="margin: 0; padding: 5px;">PNY GeForce GTX 1060 DirectX 12</h4>\\n                <i style="margin: 0; padding: 5px;">Free Shipping</i><br>\\n                <strong style="margin: 0; padding: 5px;">$312.99</strong>\\n            </div>\\n            <div class="item">\\n                <img src="\', escape=False)\nresponse.write(URL(\'static\', \'images/owl7.jpg\'))\nresponse.write(\'" alt="Owl Image">\\n                <h4 style="margin: 0; padding: 5px;">PNY GeForce GTX 1060 DirectX 12</h4>\\n                <i style="margin: 0; padding: 5px;">Free Shipping</i><br>\\n                <strong style="margin: 0; padding: 5px;">$312.99</strong>\\n            </div>\\n            <div class="item">\\n                <img src="\', escape=False)\nresponse.write(URL(\'static\', \'images/owl8.jpg\'))\nresponse.write(\'" alt="Owl Image">\\n                <h4 style="margin: 0; padding: 5px;">PNY GeForce GTX 1060 DirectX 12</h4>\\n                <i style="margin: 0; padding: 5px;">Free Shipping</i><br>\\n                <strong style="margin: 0; padding: 5px;">$312.99</strong>\\n            </div>\\n            <div class="item"><img src="\', escape=False)\nresponse.write(URL(\'static\', \'images/owl1.jpg\'))\nresponse.write(\'" alt="Owl Image"></div>\\n            <div class="item"><img src="\', escape=False)\nresponse.write(URL(\'static\', \'images/owl2.jpg\'))\nresponse.write(\'" alt="Owl Image"></div>\\n            <div class="item"><img src="\', escape=False)\nresponse.write(URL(\'static\', \'images/owl3.jpg\'))\nresponse.write(\'" alt="Owl Image"></div>\\n            <div class="item"><img src="\', escape=False)\nresponse.write(URL(\'static\', \'images/owl4.jpg\'))\nresponse.write(\'" alt="Owl Image"></div>\\n            <div class="item"><img src="\', escape=False)\nresponse.write(URL(\'static\', \'images/owl5.jpg\'))\nresponse.write(\'" alt="Owl Image"></div>\\n            <div class="item"><img src="\', escape=False)\nresponse.write(URL(\'static\', \'images/owl6.jpg\'))\nresponse.write(\'" alt="Owl Image"></div>\\n            <div class="item"><img src="\', escape=False)\nresponse.write(URL(\'static\', \'images/owl7.jpg\'))\nresponse.write(\'" alt="Owl Image"></div>\\n            <div class="item"><img src="\', escape=False)\nresponse.write(URL(\'static\', \'images/owl8.jpg\'))\nresponse.write(\'" alt="Owl Image"></div>\\n            <div class="item"><img src="\', escape=False)\nresponse.write(URL(\'static\', \'images/owl1.jpg\'))\nresponse.write(\'" alt="Owl Image"></div>\\n            <div class="item"><img src="\', escape=False)\nresponse.write(URL(\'static\', \'images/owl2.jpg\'))\nresponse.write(\'" alt="Owl Image"></div>\\n            <div class="item"><img src="\', escape=False)\nresponse.write(URL(\'static\', \'images/owl3.jpg\'))\nresponse.write(\'" alt="Owl Image"></div>\\n            <div class="item"><img src="\', escape=False)\nresponse.write(URL(\'static\', \'images/owl4.jpg\'))\nresponse.write(\'" alt="Owl Image"></div>\\n            <div class="item"><img src="\', escape=False)\nresponse.write(URL(\'static\', \'images/owl5.jpg\'))\nresponse.write(\'" alt="Owl Image"></div>\\n            <div class="item"><img src="\', escape=False)\nresponse.write(URL(\'static\', \'images/owl6.jpg\'))\nresponse.write(\'" alt="Owl Image"></div>\\n            <div class="item"><img src="\', escape=False)\nresponse.write(URL(\'static\', \'images/owl7.jpg\'))\nresponse.write(\'" alt="Owl Image"></div>\\n            <div class="item"><img src="\', escape=False)\nresponse.write(URL(\'static\', \'images/owl8.jpg\'))\nresponse.write(\'" alt="Owl Image"></div>\\n        </div>\\n\\n        <div class="category-title" style="color: #282828; padding-left: 50px"><h3>Category 2</h3></div>\\n        <div class="owl-carousel" id="product-carousel2" style="padding: 0px 50px;">\\n            <div class="item">\\n                <img src="\', escape=False)\nresponse.write(URL(\'static\', \'images/owl1.jpg\'))\nresponse.write(\'" alt="Owl Image">\\n                <h4 style="margin: 0; padding: 5px;">PNY GeForce GTX 1060 DirectX 12</h4>\\n                <i style="margin: 0; padding: 5px;">Free Shipping</i><br>\\n                <strong style="margin: 0; padding: 5px;">$312.99</strong>\\n            </div>\\n            <div class="item">\\n                <img src="\', escape=False)\nresponse.write(URL(\'static\', \'images/owl2.jpg\'))\nresponse.write(\'" alt="Owl Image">\\n                <h4 style="margin: 0; padding: 5px;">PNY GeForce GTX 1060 DirectX 12</h4>\\n                <i style="margin: 0; padding: 5px;">Free Shipping</i><br>\\n                <strong style="margin: 0; padding: 5px;">$312.99</strong>\\n            </div>\\n            <div class="item">\\n                <img src="\', escape=False)\nresponse.write(URL(\'static\', \'images/owl3.jpg\'))\nresponse.write(\'" alt="Owl Image">\\n                <h4 style="margin: 0; padding: 5px;">PNY GeForce GTX 1060 DirectX 12</h4>\\n                <i style="margin: 0; padding: 5px;">Free Shipping</i><br>\\n                <strong style="margin: 0; padding: 5px;">$312.99</strong>\\n            </div>\\n            <div class="item">\\n                <img src="\', escape=False)\nresponse.write(URL(\'static\', \'images/owl4.jpg\'))\nresponse.write(\'" alt="Owl Image">\\n                <h4 style="margin: 0; padding: 5px;">PNY GeForce GTX 1060 DirectX 12</h4>\\n                <i style="margin: 0; padding: 5px;">Free Shipping</i><br>\\n                <strong style="margin: 0; padding: 5px;">$312.99</strong>\\n            </div>\\n            <div class="item">\\n                <img src="\', escape=False)\nresponse.write(URL(\'static\', \'images/owl5.jpg\'))\nresponse.write(\'" alt="Owl Image">\\n                <h4 style="margin: 0; padding: 5px;">PNY GeForce GTX 1060 DirectX 12</h4>\\n                <i style="margin: 0; padding: 5px;">Free Shipping</i><br>\\n                <strong style="margin: 0; padding: 5px;">$312.99</strong>\\n            </div>\\n            <div class="item">\\n                <img src="\', escape=False)\nresponse.write(URL(\'static\', \'images/owl6.jpg\'))\nresponse.write(\'" alt="Owl Image">\\n                <h4 style="margin: 0; padding: 5px;">PNY GeForce GTX 1060 DirectX 12</h4>\\n                <i style="margin: 0; padding: 5px;">Free Shipping</i><br>\\n                <strong style="margin: 0; padding: 5px;">$312.99</strong>\\n            </div>\\n            <div class="item">\\n                <img src="\', escape=False)\nresponse.write(URL(\'static\', \'images/owl7.jpg\'))\nresponse.write(\'" alt="Owl Image">\\n                <h4 style="margin: 0; padding: 5px;">PNY GeForce GTX 1060 DirectX 12</h4>\\n                <i style="margin: 0; padding: 5px;">Free Shipping</i><br>\\n                <strong style="margin: 0; padding: 5px;">$312.99</strong>\\n            </div>\\n            <div class="item">\\n                <img src="\', escape=False)\nresponse.write(URL(\'static\', \'images/owl8.jpg\'))\nresponse.write(\'" alt="Owl Image">\\n                <h4 style="margin: 0; padding: 5px;">PNY GeForce GTX 1060 DirectX 12</h4>\\n                <i style="margin: 0; padding: 5px;">Free Shipping</i><br>\\n                <strong style="margin: 0; padding: 5px;">$312.99</strong>\\n            </div>\\n            <div class="item"><img src="\', escape=False)\nresponse.write(URL(\'static\', \'images/owl1.jpg\'))\nresponse.write(\'" alt="Owl Image"></div>\\n            <div class="item"><img src="\', escape=False)\nresponse.write(URL(\'static\', \'images/owl2.jpg\'))\nresponse.write(\'" alt="Owl Image"></div>\\n            <div class="item"><img src="\', escape=False)\nresponse.write(URL(\'static\', \'images/owl3.jpg\'))\nresponse.write(\'" alt="Owl Image"></div>\\n            <div class="item"><img src="\', escape=False)\nresponse.write(URL(\'static\', \'images/owl4.jpg\'))\nresponse.write(\'" alt="Owl Image"></div>\\n            <div class="item"><img src="\', escape=False)\nresponse.write(URL(\'static\', \'images/owl5.jpg\'))\nresponse.write(\'" alt="Owl Image"></div>\\n            <div class="item"><img src="\', escape=False)\nresponse.write(URL(\'static\', \'images/owl6.jpg\'))\nresponse.write(\'" alt="Owl Image"></div>\\n            <div class="item"><img src="\', escape=False)\nresponse.write(URL(\'static\', \'images/owl7.jpg\'))\nresponse.write(\'" alt="Owl Image"></div>\\n            <div class="item"><img src="\', escape=False)\nresponse.write(URL(\'static\', \'images/owl8.jpg\'))\nresponse.write(\'" alt="Owl Image"></div>\\n            <div class="item"><img src="\', escape=False)\nresponse.write(URL(\'static\', \'images/owl1.jpg\'))\nresponse.write(\'" alt="Owl Image"></div>\\n            <div class="item"><img src="\', escape=False)\nresponse.write(URL(\'static\', \'images/owl2.jpg\'))\nresponse.write(\'" alt="Owl Image"></div>\\n            <div class="item"><img src="\', escape=False)\nresponse.write(URL(\'static\', \'images/owl3.jpg\'))\nresponse.write(\'" alt="Owl Image"></div>\\n            <div class="item"><img src="\', escape=False)\nresponse.write(URL(\'static\', \'images/owl4.jpg\'))\nresponse.write(\'" alt="Owl Image"></div>\\n            <div class="item"><img src="\', escape=False)\nresponse.write(URL(\'static\', \'images/owl5.jpg\'))\nresponse.write(\'" alt="Owl Image"></div>\\n            <div class="item"><img src="\', escape=False)\nresponse.write(URL(\'static\', \'images/owl6.jpg\'))\nresponse.write(\'" alt="Owl Image"></div>\\n            <div class="item"><img src="\', escape=False)\nresponse.write(URL(\'static\', \'images/owl7.jpg\'))\nresponse.write(\'" alt="Owl Image"></div>\\n            <div class="item"><img src="\', escape=False)\nresponse.write(URL(\'static\', \'images/owl8.jpg\'))\nresponse.write(\'" alt="Owl Image"></div>\\n        </div>\\n\\n        <div class="category-title" style="color: #282828; padding-left: 50px"><h3>Category 3</h3></div>\\n        <div class="owl-carousel" id="product-carousel3" style="padding: 0px 50px;">\\n            <div class="item">\\n                <img src="\', escape=False)\nresponse.write(URL(\'static\', \'images/owl1.jpg\'))\nresponse.write(\'" alt="Owl Image">\\n                <h4 style="margin: 0; padding: 5px;">PNY GeForce GTX 1060 DirectX 12</h4>\\n                <i style="margin: 0; padding: 5px;">Free Shipping</i><br>\\n                <strong style="margin: 0; padding: 5px;">$312.99</strong>\\n            </div>\\n            <div class="item">\\n                <img src="\', escape=False)\nresponse.write(URL(\'static\', \'images/owl2.jpg\'))\nresponse.write(\'" alt="Owl Image">\\n                <h4 style="margin: 0; padding: 5px;">PNY GeForce GTX 1060 DirectX 12</h4>\\n                <i style="margin: 0; padding: 5px;">Free Shipping</i><br>\\n                <strong style="margin: 0; padding: 5px;">$312.99</strong>\\n            </div>\\n            <div class="item">\\n                <img src="\', escape=False)\nresponse.write(URL(\'static\', \'images/owl3.jpg\'))\nresponse.write(\'" alt="Owl Image">\\n                <h4 style="margin: 0; padding: 5px;">PNY GeForce GTX 1060 DirectX 12</h4>\\n                <i style="margin: 0; padding: 5px;">Free Shipping</i><br>\\n                <strong style="margin: 0; padding: 5px;">$312.99</strong>\\n            </div>\\n            <div class="item">\\n                <img src="\', escape=False)\nresponse.write(URL(\'static\', \'images/owl4.jpg\'))\nresponse.write(\'" alt="Owl Image">\\n                <h4 style="margin: 0; padding: 5px;">PNY GeForce GTX 1060 DirectX 12</h4>\\n                <i style="margin: 0; padding: 5px;">Free Shipping</i><br>\\n                <strong style="margin: 0; padding: 5px;">$312.99</strong>\\n            </div>\\n            <div class="item">\\n                <img src="\', escape=False)\nresponse.write(URL(\'static\', \'images/owl5.jpg\'))\nresponse.write(\'" alt="Owl Image">\\n                <h4 style="margin: 0; padding: 5px;">PNY GeForce GTX 1060 DirectX 12</h4>\\n                <i style="margin: 0; padding: 5px;">Free Shipping</i><br>\\n                <strong style="margin: 0; padding: 5px;">$312.99</strong>\\n            </div>\\n            <div class="item">\\n                <img src="\', escape=False)\nresponse.write(URL(\'static\', \'images/owl6.jpg\'))\nresponse.write(\'" alt="Owl Image">\\n                <h4 style="margin: 0; padding: 5px;">PNY GeForce GTX 1060 DirectX 12</h4>\\n                <i style="margin: 0; padding: 5px;">Free Shipping</i><br>\\n                <strong style="margin: 0; padding: 5px;">$312.99</strong>\\n            </div>\\n            <div class="item">\\n                <img src="\', escape=False)\nresponse.write(URL(\'static\', \'images/owl7.jpg\'))\nresponse.write(\'" alt="Owl Image">\\n                <h4 style="margin: 0; padding: 5px;">PNY GeForce GTX 1060 DirectX 12</h4>\\n                <i style="margin: 0; padding: 5px;">Free Shipping</i><br>\\n                <strong style="margin: 0; padding: 5px;">$312.99</strong>\\n            </div>\\n            <div class="item">\\n                <img src="\', escape=False)\nresponse.write(URL(\'static\', \'images/owl8.jpg\'))\nresponse.write(\'" alt="Owl Image">\\n                <h4 style="margin: 0; padding: 5px;">PNY GeForce GTX 1060 DirectX 12</h4>\\n                <i style="margin: 0; padding: 5px;">Free Shipping</i><br>\\n                <strong style="margin: 0; padding: 5px;">$312.99</strong>\\n            </div>\\n            <div class="item"><img src="\', escape=False)\nresponse.write(URL(\'static\', \'images/owl1.jpg\'))\nresponse.write(\'" alt="Owl Image"></div>\\n            <div class="item"><img src="\', escape=False)\nresponse.write(URL(\'static\', \'images/owl2.jpg\'))\nresponse.write(\'" alt="Owl Image"></div>\\n            <div class="item"><img src="\', escape=False)\nresponse.write(URL(\'static\', \'images/owl3.jpg\'))\nresponse.write(\'" alt="Owl Image"></div>\\n            <div class="item"><img src="\', escape=False)\nresponse.write(URL(\'static\', \'images/owl4.jpg\'))\nresponse.write(\'" alt="Owl Image"></div>\\n            <div class="item"><img src="\', escape=False)\nresponse.write(URL(\'static\', \'images/owl5.jpg\'))\nresponse.write(\'" alt="Owl Image"></div>\\n            <div class="item"><img src="\', escape=False)\nresponse.write(URL(\'static\', \'images/owl6.jpg\'))\nresponse.write(\'" alt="Owl Image"></div>\\n            <div class="item"><img src="\', escape=False)\nresponse.write(URL(\'static\', \'images/owl7.jpg\'))\nresponse.write(\'" alt="Owl Image"></div>\\n            <div class="item"><img src="\', escape=False)\nresponse.write(URL(\'static\', \'images/owl8.jpg\'))\nresponse.write(\'" alt="Owl Image"></div>\\n            <div class="item"><img src="\', escape=False)\nresponse.write(URL(\'static\', \'images/owl1.jpg\'))\nresponse.write(\'" alt="Owl Image"></div>\\n            <div class="item"><img src="\', escape=False)\nresponse.write(URL(\'static\', \'images/owl2.jpg\'))\nresponse.write(\'" alt="Owl Image"></div>\\n            <div class="item"><img src="\', escape=False)\nresponse.write(URL(\'static\', \'images/owl3.jpg\'))\nresponse.write(\'" alt="Owl Image"></div>\\n            <div class="item"><img src="\', escape=False)\nresponse.write(URL(\'static\', \'images/owl4.jpg\'))\nresponse.write(\'" alt="Owl Image"></div>\\n            <div class="item"><img src="\', escape=False)\nresponse.write(URL(\'static\', \'images/owl5.jpg\'))\nresponse.write(\'" alt="Owl Image"></div>\\n            <div class="item"><img src="\', escape=False)\nresponse.write(URL(\'static\', \'images/owl6.jpg\'))\nresponse.write(\'" alt="Owl Image"></div>\\n            <div class="item"><img src="\', escape=False)\nresponse.write(URL(\'static\', \'images/owl7.jpg\'))\nresponse.write(\'" alt="Owl Image"></div>\\n            <div class="item"><img src="\', escape=False)\nresponse.write(URL(\'static\', \'images/owl8.jpg\'))\nresponse.write(\'" alt="Owl Image"></div>\\n        </div>\\n\\n    </div>\\n\', escape=False)\nresponse.write(\'\\n    <div class="\', escape=False)\nresponse.write(middle_column)\nresponse.write(\'">\\n        \', escape=False)\nresponse.write(\'\\n        \', escape=False)\nresponse.write(\'\\n\\n\', escape=False)\nresponse.write(\'\\n\\n\', escape=False)\nresponse.write(\'\\n        \\n\\n\', escape=False)\nif \'message\' in globals():\n    response.write(\'\\n    <h2>\', escape=False)\n    response.write(message)\n    response.write(\'</h2>\\n    <p class="lead">\', escape=False)\n    response.write(T(\'How did you get here?\'))\n    response.write(\'</p>\\n    <ol>\\n      <li>\', escape=False)\n    response.write(T(\'You are successfully running web2py\'))\n    response.write(\'</li>\\n      <li>\', escape=False)\n    response.write(XML(T(\'You visited the url %s\', A(request.env.path_info,_href=request.env.path_info))))\n    response.write(\'</li>\\n      <li>\', escape=False)\n    response.write(XML(T(\'Which called the function %s located in the file %s\',\n    (A(request.function+\'()\',_href=\'#\'),\n    A(\'web2py/applications/%(application)s/controllers/%(controller)s.py\' % request,\n    _href=URL(\'admin\',\'default\',\'peek\', args=(request.application,\'controllers\',request.controller+\'.py\')))))))\n    response.write(\'</li>\\n      <li>\', escape=False)\n    response.write(XML(T(\'The output of the file is a dictionary that was rendered by the view %s\',\n    A(\'web2py/applications/%(application)s/views/%(controller)s/index.html\' % request,\n    _href=URL(\'admin\',\'default\',\'peek\',args=(request.application,\'views\',request.controller,\'index.html\'))))))\n    response.write(\'</li>\\n      <li>\', escape=False)\n    response.write(T(\'You can modify this application and adapt it to your needs\'))\n    response.write(\'</li>\\n    </ol>\\n\', escape=False)\nelif \'content\' in globals():\n    response.write(\'\\n    \', escape=False)\n    response.write(content)\n    response.write(\'\\n\', escape=False)\nelse:\n    response.write(\'\\n    \', escape=False)\n    response.write(BEAUTIFY(response._vars))\n    response.write(\'\\n\', escape=False)\n    pass\nresponse.write(\'\\n\\n\', escape=False)\nresponse.write(\'\\n\\n\', escape=False)\nresponse.write(\'\\n        \', escape=False)\nresponse.write(\'\\n      </div>\\n    \', escape=False)\nif right_sidebar_enabled:\n    response.write(\'\\n        <div class="col-md-3">\\n            \', escape=False)\n    response.write(\'\\n<div class="panel panel-info">\\n  <div class="panel-heading"><h3 class="panel-title"><a class="btn-block"\\n      href="\', escape=False)\n    response.write(URL(\'admin\',\'default\',\'index\'))\n    response.write(\'">\\n      <i class="glyphicon glyphicon-cog"></i>\\n      \', escape=False)\n    response.write(T("admin"))\n    response.write(\'\\n    </a></h3></div>\\n  <div class="panel-body">\\n    \', escape=False)\n    response.write(T("Don\'t know what to do?"))\n    response.write(\'\\n  </div>\\n  <ul class="list-group">\\n    <li class="list-group-item">\', escape=False)\n    response.write(A(T("Online examples"), _href=URL(\'examples\',\'default\',\'index\')))\n    response.write(\'</li>\\n    <li class="list-group-item"><a href="http://web2py.com">web2py.com</a></li>\\n    <li class="list-group-item"><a href="http://web2py.com/book">\', escape=False)\n    response.write(T(\'Documentation\'))\n    response.write(\'</a></li>\\n  </ul>\\n</div>\\n\', escape=False)\n    response.write(\'\\n        </div>\\n      \', escape=False)\n    pass\nresponse.write(\'\\n\\n\\n    \', escape=False)\nresponse.write(\' <!-- this is default footer -->\\n        <footer class="footer">\\n          <div class="container-fluid">\\n            <div class="copyright pull-left">\', escape=False)\nresponse.write(T(\'Copyright\'))\nresponse.write(\' &#169; \', escape=False)\nresponse.write(request.now.year)\nresponse.write(\'</div>\\n              <div id="poweredBy" class="pull-right">\\n                \', escape=False)\nresponse.write(T(\'Powered by\'))\nresponse.write(\'\\n                <a href="http://www.web2py.com/">web2py</a>\\n              </div>\\n          </div>\\n        </footer>\\n    \', escape=False)\nresponse.write(\'\\n\\n    <!-- The javascript =============================== -->\\n    <script src="\', escape=False)\nresponse.write(URL(\'static\',\'js/bootstrap.min.js\'))\nresponse.write(\'"></script>\\n    <script src="\', escape=False)\nresponse.write(URL(\'static\',\'js/web2py-bootstrap3.js\'))\nresponse.write(\'"></script>\\n    \', escape=False)\nresponse.write(\'\\n    <!-- OWL CAROUSEL JAVASCRIPTS -->\\n    <script src="\', escape=False)\nresponse.write(URL(\'static\',\'js/jquery-1.9.1.min.js\'))\nresponse.write(\'"></script>\\n    <script src="\', escape=False)\nresponse.write(URL(\'static\',\'js/owl.carousel.js\'))\nresponse.write(\'"></script>\\n    <script src="\', escape=False)\nresponse.write(URL(\'static\',\'js/owl.carousel.feature.js\'))\nresponse.write(\'"></script>\\n    <script src="\', escape=False)\nresponse.write(URL(\'static\',\'js/carousel.js\'))\nresponse.write(\'"></script>\\n\', escape=False)\nresponse.write(\'\\n    \', escape=False)\nif response.google_analytics_id:\n    response.write(\'\\n\\n    <!-- Analytics ==================================== -->\\n    <script src="\', escape=False)\n    response.write(URL(\'static\',\'js/analytics.min.js\'))\n    response.write(\'"></script>\\n    <script type="text/javascript">\\n      analytics.initialize({\\n      \\\'Google Analytics\\\':{trackingId:\\\'\', escape=False)\n    response.write(response.google_analytics_id)\n    response.write("\'}\\n      });\\n    </script>\\n    ", escape=False)\n    pass\nresponse.write(\'\\n    <!-- Share ======================================== -->\\n    <script src="\', escape=False)\nresponse.write(URL(\'static\',\'js/share.js\',vars=dict(static=URL(\'static\',\'images\'))))\nresponse.write(\'"></script>\\n  </body>\\n</html>\\n</html>\\n\', escape=False)'
p7
sS'snapshot'
p8
(dp9
S'exception'
p10
(dp11
S'__hash__'
p12
S"<method-wrapper '__hash__' of exceptions.NameError object>"
p13
sS'__setattr__'
p14
S"<method-wrapper '__setattr__' of exceptions.NameError object>"
p15
sS'__reduce_ex__'
p16
S'<built-in method __reduce_ex__ of exceptions.NameError object>'
p17
sS'__getslice__'
p18
S"<method-wrapper '__getslice__' of exceptions.NameError object>"
p19
sS'__getitem__'
p20
S"<method-wrapper '__getitem__' of exceptions.NameError object>"
p21
sS'__setstate__'
p22
S'<built-in method __setstate__ of exceptions.NameError object>'
p23
sS'args'
p24
S'("name \'middle_column\' is not defined",)'
p25
sS'__reduce__'
p26
S'<built-in method __reduce__ of exceptions.NameError object>'
p27
sS'__str__'
p28
S"<method-wrapper '__str__' of exceptions.NameError object>"
p29
sS'__format__'
p30
S'<built-in method __format__ of exceptions.NameError object>'
p31
sS'__getattribute__'
p32
S"<method-wrapper '__getattribute__' of exceptions.NameError object>"
p33
sS'__class__'
p34
S"<type 'exceptions.NameError'>"
p35
sS'__unicode__'
p36
S'<built-in method __unicode__ of exceptions.NameError object>'
p37
sS'__delattr__'
p38
S"<method-wrapper '__delattr__' of exceptions.NameError object>"
p39
sS'__subclasshook__'
p40
S'<built-in method __subclasshook__ of type object>'
p41
sS'__repr__'
p42
S"<method-wrapper '__repr__' of exceptions.NameError object>"
p43
sS'__dict__'
p44
S'{}'
p45
sS'__sizeof__'
p46
S'<built-in method __sizeof__ of exceptions.NameError object>'
p47
sS'__doc__'
p48
S"'Name not found globally.'"
p49
sS'__init__'
p50
S"<method-wrapper '__init__' of exceptions.NameError object>"
p51
sS'__new__'
p52
S'<built-in method __new__ of type object>'
p53
ssS'evalue'
p54
S"name 'middle_column' is not defined"
p55
sS'request'
p56
cgluon.html
XML_unpickle
p57
(S's%^\x00\x00<div><table><tr><td style="font-weight:bold;vertical-align:top;">ajax</td><td style="vertical-align:top;">:</td><td><div>False</div></td></tr><tr><td style="font-weight:bold;vertical-align:top;">application</td><td style="vertical-align:top;">:</td><td><div>Dropshipping</div></td></tr><tr><td style="font-weight:bold;vertical-align:top;">args</td><td style="vertical-align:top;">:</td><td><div><table></table></div></td></tr><tr><td style="font-weight:bold;vertical-align:top;">cid</td><td style="vertical-align:top;">:</td><td><div>None</div></td></tr><tr><td style="font-weight:bold;vertical-align:top;">client</td><td style="vertical-align:top;">:</td><td><div>127.0.0.1</div></td></tr><tr><td style="font-weight:bold;vertical-align:top;">controller</td><td style="vertical-align:top;">:</td><td><div>default</div></td></tr><tr><td style="font-weight:bold;vertical-align:top;">cookies</td><td style="vertical-align:top;">:</td><td><div><table><tr><td style="font-weight:bold;vertical-align:top;">session_id_admin</td><td style="vertical-align:top;">:</td><td><div>127.0.0.1-012fc54a-7c10-4142-8655-0257d6a70390<table><tr><td style="font-weight:bold;vertical-align:top;">comment</td><td style="vertical-align:top;">:</td><td><div></div></td></tr><tr><td style="font-weight:bold;vertical-align:top;">domain</td><td style="vertical-align:top;">:</td><td><div></div></td></tr><tr><td style="font-weight:bold;vertical-align:top;">expires</td><td style="vertical-align:top;">:</td><td><div></div></td></tr><tr><td style="font-weight:bold;vertical-align:top;">httponly</td><td style="vertical-align:top;">:</td><td><div></div></td></tr><tr><td style="font-weight:bold;vertical-align:top;">max-age</td><td style="vertical-align:top;">:</td><td><div></div></td></tr><tr><td style="font-weight:bold;vertical-align:top;">path</td><td style="vertical-align:top;">:</td><td><div></div></td></tr><tr><td style="font-weight:bold;vertical-align:top;">secure</td><td style="vertical-align:top;">:</td><td><div></div></td></tr><tr><td style="font-weight:bold;vertical-align:top;">version</td><td style="vertical-align:top;">:</td><td><div></div></td></tr></table></div></td></tr><tr><td style="font-weight:bold;vertical-align:top;">session_id_dropshipping</td><td style="vertical-align:top;">:</td><td><div>127.0.0.1-7ca5c3f0-fb6c-41c3-a140-cf7a8f711836<table><tr><td style="font-weight:bold;vertical-align:top;">comment</td><td style="vertical-align:top;">:</td><td><div></div></td></tr><tr><td style="font-weight:bold;vertical-align:top;">domain</td><td style="vertical-align:top;">:</td><td><div></div></td></tr><tr><td style="font-weight:bold;vertical-align:top;">expires</td><td style="vertical-align:top;">:</td><td><div></div></td></tr><tr><td style="font-weight:bold;vertical-align:top;">httponly</td><td style="vertical-align:top;">:</td><td><div></div></td></tr><tr><td style="font-weight:bold;vertical-align:top;">max-age</td><td style="vertical-align:top;">:</td><td><div></div></td></tr><tr><td style="font-weight:bold;vertical-align:top;">path</td><td style="vertical-align:top;">:</td><td><div></div></td></tr><tr><td style="font-weight:bold;vertical-align:top;">secure</td><td style="vertical-align:top;">:</td><td><div></div></td></tr><tr><td style="font-weight:bold;vertical-align:top;">version</td><td style="vertical-align:top;">:</td><td><div></div></td></tr></table></div></td></tr><tr><td style="font-weight:bold;vertical-align:top;">session_id_welcome</td><td style="vertical-align:top;">:</td><td><div>127.0.0.1-2c6a4021-54b3-4ad7-a684-f10d8caca0a5<table><tr><td style="font-weight:bold;vertical-align:top;">comment</td><td style="vertical-align:top;">:</td><td><div></div></td></tr><tr><td style="font-weight:bold;vertical-align:top;">domain</td><td style="vertical-align:top;">:</td><td><div></div></td></tr><tr><td style="font-weight:bold;vertical-align:top;">expires</td><td style="vertical-align:top;">:</td><td><div></div></td></tr><tr><td style="font-weight:bold;vertical-align:top;">httponly</td><td style="vertical-align:top;">:</td><td><div></div></td></tr><tr><td style="font-weight:bold;vertical-align:top;">max-age</td><td style="vertical-align:top;">:</td><td><div></div></td></tr><tr><td style="font-weight:bold;vertical-align:top;">path</td><td style="vertical-align:top;">:</td><td><div></div></td></tr><tr><td style="font-weight:bold;vertical-align:top;">secure</td><td style="vertical-align:top;">:</td><td><div></div></td></tr><tr><td style="font-weight:bold;vertical-align:top;">version</td><td style="vertical-align:top;">:</td><td><div></div></td></tr></table></div></td></tr></table></div></td></tr><tr><td style="font-weight:bold;vertical-align:top;">env</td><td style="vertical-align:top;">:</td><td><div><table><tr><td style="font-weight:bold;vertical-align:top;">HTTP_ACCEPT</td><td style="vertical-align:top;">:</td><td><div>text/html,application/xhtml+xml,application/xml;q=0.9,*/*;q=0.8</div></td></tr><tr><td style="font-weight:bold;vertical-align:top;">HTTP_ACCEPT_ENCODING</td><td style="vertical-align:top;">:</td><td><div>gzip, deflate</div></td></tr><tr><td style="font-weight:bold;vertical-align:top;">HTTP_ACCEPT_LANGUAGE</td><td style="vertical-align:top;">:</td><td><div>en-us</div></td></tr><tr><td style="font-weight:bold;vertical-align:top;">HTTP_CACHE_CONTROL</td><td style="vertical-align:top;">:</td><td><div>max-age=0</div></td></tr><tr><td style="font-weight:bold;vertical-align:top;">HTTP_CONNECTION</td><td style="vertical-align:top;">:</td><td><div>keep-alive</div></td></tr><tr><td style="font-weight:bold;vertical-align:top;">HTTP_COOKIE</td><td style="vertical-align:top;">:</td><td><div>session_id_admin=127.0.0.1-012fc54a-7c10-4142-8655-0257d6a70390; session_id_dropshipping=127.0.0.1-7ca5c3f0-fb6c-41c3-a140-cf7a8f711836; session_id_welcome=127.0.0.1-2c6a4021-54b3-4ad7-a684-f10d8caca0a5</div></td></tr><tr><td style="font-weight:bold;vertical-align:top;">HTTP_HOST</td><td style="vertical-align:top;">:</td><td><div>127.0.0.1:8000</div></td></tr><tr><td style="font-weight:bold;vertical-align:top;">HTTP_REFERER</td><td style="vertical-align:top;">:</td><td><div>http://127.0.0.1:8000/admin/default/site</div></td></tr><tr><td style="font-weight:bold;vertical-align:top;">HTTP_USER_AGENT</td><td style="vertical-align:top;">:</td><td><div>Mozilla/5.0 (Macintosh; Intel Mac OS X 10_11_6) AppleWebKit/601.7.8 (KHTML, like Gecko) Version/9.1.3 Safari/601.7.8</div></td></tr><tr><td style="font-weight:bold;vertical-align:top;">PATH_INFO</td><td style="vertical-align:top;">:</td><td><div>/Dropshipping/default/index</div></td></tr><tr><td style="font-weight:bold;vertical-align:top;">QUERY_STRING</td><td style="vertical-align:top;">:</td><td><div></div></td></tr><tr><td style="font-weight:bold;vertical-align:top;">REMOTE_ADDR</td><td style="vertical-align:top;">:</td><td><div>127.0.0.1</div></td></tr><tr><td style="font-weight:bold;vertical-align:top;">REMOTE_PORT</td><td style="vertical-align:top;">:</td><td><div>58116</div></td></tr><tr><td style="font-weight:bold;vertical-align:top;">REQUEST_METHOD</td><td style="vertical-align:top;">:</td><td><div>GET</div></td></tr><tr><td style="font-weight:bold;vertical-align:top;">SCRIPT_NAME</td><td style="vertical-align:top;">:</td><td><div></div></td></tr><tr><td style="font-weight:bold;vertical-align:top;">SERVER_NAME</td><td style="vertical-align:top;">:</td><td><div>Sidneys-MacBook-Pro.local</div></td></tr><tr><td style="font-weight:bold;vertical-align:top;">SERVER_PORT</td><td style="vertical-align:top;">:</td><td><div>8000</div></td></tr><tr><td style="font-weight:bold;vertical-align:top;">SERVER_PROTOCOL</td><td style="vertical-align:top;">:</td><td><div>HTTP/1.1</div></td></tr><tr><td style="font-weight:bold;vertical-align:top;">SERVER_SOFTWARE</td><td style="vertical-align:top;">:</td><td><div>Rocket 1.2.6</div></td></tr><tr><td style="font-weight:bold;vertical-align:top;">app_folders</td><td style="vertical-align:top;">:</td><td><div>set([&#x27;/Users/sidneyeubanks/Google Drive/Developer/Dropshipping/web2py/applications/Dropshipping/&#x27;, &#x27;/Users/sidneyeubanks/Google Drive/Developer/Dropshipping/web2py/applications/admin/&#x27;, &#x27;/Users/sidneyeubanks/Google Drive/Developer/Dropshipping/web2py/applications/welcome/&#x27;])</div></td></tr><tr><td style="font-weight:bold;vertical-align:top;">applications_parent</td><td style="vertical-align:top;">:</td><td><div>/Users/sidneyeubanks/Google Drive/Developer/Dropshipping/web2py</div></td></tr><tr><td style="font-weight:bold;vertical-align:top;">cmd_args</td><td style="vertical-align:top;">:</td><td><div><table></table></div></td></tr><tr><td style="font-weight:bold;vertical-align:top;">cmd_options</td><td style="vertical-align:top;">:</td><td><div>&lt;Values at 0x105b43830: {&#x27;verbose&#x27;: False, &#x27;ip&#x27;: &#x27;127.0.0.1&#x27;, &#x27;debuglevel&#x27;: 30, &#x27;with_scheduler&#x27;: False, &#x27;shutdown_timeout&#x27;: 5, &#x27;taskbar&#x27;: False, &#x27;with_coverage&#x27;: False, &#x27;pid_filename&#x27;: &#x27;httpserver.pid&#x27;, &#x27;maxthreads&#x27;: None, &#x27;softcron&#x27;: False, &#x27;server_name&#x27;: &#x27;Sidneys-MacBook-Pro.local&#x27;, &#x27;bpython&#x27;: False, &#x27;nogui&#x27;: False, &#x27;port&#x27;: 8000, &#x27;print_errors&#x27;: True, &#x27;extcron&#x27;: False, &#x27;runcron&#x27;: False, &#x27;run_system_tests&#x27;: False, &#x27;test&#x27;: None, &#x27;folder&#x27;: &#x27;/Users/sidneyeubanks/Google Drive/Developer/Dropshipping/web2py&#x27;, &#x27;config&#x27;: &#x27;&#x27;, &#x27;minthreads&#x27;: None, &#x27;shell&#x27;: None, &#x27;run&#x27;: &#x27;&#x27;, &#x27;log_filename&#x27;: &#x27;httpserver.log&#x27;, &#x27;profiler_dir&#x27;: None, &#x27;args&#x27;: [&#x27;&#x27;], &#x27;socket_timeout&#x27;: 5, &#x27;ssl_ca_certificate&#x27;: None, &#x27;scheduler&#x27;: None, &#x27;interfaces&#x27;: None, &#x27;ssl_private_key&#x27;: &#x27;&#x27;, &#x27;gae&#x27;: None, &#x27;password&#x27;: &#x27;******&#x27;, &#x27;request_queue_size&#x27;: 5, &#x27;ssl_certificate&#x27;: &#x27;&#x27;, &#x27;cronjob&#x27;: False, &#x27;numthreads&#x27;: None, &#x27;quiet&#x27;: False, &#x27;import_models&#x27;: False, &#x27;timeout&#x27;: 10, &#x27;plain&#x27;: False, &#x27;nobanner&#x27;: False}&gt;</div></td></tr><tr><td style="font-weight:bold;vertical-align:top;">db_sessions</td><td style="vertical-align:top;">:</td><td><div>set([])</div></td></tr><tr><td style="font-weight:bold;vertical-align:top;">debugging</td><td style="vertical-align:top;">:</td><td><div>False</div></td></tr><tr><td style="font-weight:bold;vertical-align:top;">gluon_parent</td><td style="vertical-align:top;">:</td><td><div>/Users/sidneyeubanks/Google Drive/Developer/Dropshipping/web2py</div></td></tr><tr><td style="font-weight:bold;vertical-align:top;">http_accept</td><td style="vertical-align:top;">:</td><td><div>text/html,application/xhtml+xml,application/xml;q=0.9,*/*;q=0.8</div></td></tr><tr><td style="font-weight:bold;vertical-align:top;">http_accept_encoding</td><td style="vertical-align:top;">:</td><td><div>gzip, deflate</div></td></tr><tr><td style="font-weight:bold;vertical-align:top;">http_accept_language</td><td style="vertical-align:top;">:</td><td><div>en-us</div></td></tr><tr><td style="font-weight:bold;vertical-align:top;">http_cache_control</td><td style="vertical-align:top;">:</td><td><div>max-age=0</div></td></tr><tr><td style="font-weight:bold;vertical-align:top;">http_connection</td><td style="vertical-align:top;">:</td><td><div>keep-alive</div></td></tr><tr><td style="font-weight:bold;vertical-align:top;">http_cookie</td><td style="vertical-align:top;">:</td><td><div>session_id_admin=127.0.0.1-012fc54a-7c10-4142-8655-0257d6a70390; session_id_dropshipping=127.0.0.1-7ca5c3f0-fb6c-41c3-a140-cf7a8f711836; session_id_welcome=127.0.0.1-2c6a4021-54b3-4ad7-a684-f10d8caca0a5</div></td></tr><tr><td style="font-weight:bold;vertical-align:top;">http_host</td><td style="vertical-align:top;">:</td><td><div>127.0.0.1:8000</div></td></tr><tr><td style="font-weight:bold;vertical-align:top;">http_referer</td><td style="vertical-align:top;">:</td><td><div>http://127.0.0.1:8000/admin/default/site</div></td></tr><tr><td style="font-weight:bold;vertical-align:top;">http_user_agent</td><td style="vertical-align:top;">:</td><td><div>Mozilla/5.0 (Macintosh; Intel Mac OS X 10_11_6) AppleWebKit/601.7.8 (KHTML, like Gecko) Version/9.1.3 Safari/601.7.8</div></td></tr><tr><td style="font-weight:bold;vertical-align:top;">is_jython</td><td style="vertical-align:top;">:</td><td><div>False</div></td></tr><tr><td style="font-weight:bold;vertical-align:top;">is_pypy</td><td style="vertical-align:top;">:</td><td><div>False</div></td></tr><tr><td style="font-weight:bold;vertical-align:top;">is_source</td><td style="vertical-align:top;">:</td><td><div>True</div></td></tr><tr><td style="font-weight:bold;vertical-align:top;">local_hosts</td><td style="vertical-align:top;">:</td><td><div><table><tr><td><div>::ffff:127.0.0.1</div></td></tr><tr><td><div>::1</div></td></tr><tr><td><div>fe80::1%lo0</div></td></tr><tr><td><div>sidneys-macbook-pro.local</div></td></tr><tr><td><div>Sidneys-MacBook-Pro.local</div></td></tr><tr><td><div>127.0.0.1</div></td></tr></table></div></td></tr><tr><td style="font-weight:bold;vertical-align:top;">path_info</td><td style="vertical-align:top;">:</td><td><div>/Dropshipping/default/index</div></td></tr><tr><td style="font-weight:bold;vertical-align:top;">query_string</td><td style="vertical-align:top;">:</td><td><div></div></td></tr><tr><td style="font-weight:bold;vertical-align:top;">remote_addr</td><td style="vertical-align:top;">:</td><td><div>127.0.0.1</div></td></tr><tr><td style="font-weight:bold;vertical-align:top;">remote_port</td><td style="vertical-align:top;">:</td><td><div>58116</div></td></tr><tr><td style="font-weight:bold;vertical-align:top;">request_method</td><td style="vertical-align:top;">:</td><td><div>GET</div></td></tr><tr><td style="font-weight:bold;vertical-align:top;">request_uri</td><td style="vertical-align:top;">:</td><td><div>/Dropshipping/default/index</div></td></tr><tr><td style="font-weight:bold;vertical-align:top;">script_name</td><td style="vertical-align:top;">:</td><td><div></div></td></tr><tr><td style="font-weight:bold;vertical-align:top;">server_name</td><td style="vertical-align:top;">:</td><td><div>Sidneys-MacBook-Pro.local</div></td></tr><tr><td style="font-weight:bold;vertical-align:top;">server_port</td><td style="vertical-align:top;">:</td><td><div>8000</div></td></tr><tr><td style="font-weight:bold;vertical-align:top;">server_protocol</td><td style="vertical-align:top;">:</td><td><div>HTTP/1.1</div></td></tr><tr><td style="font-weight:bold;vertical-align:top;">server_software</td><td style="vertical-align:top;">:</td><td><div>Rocket 1.2.6</div></td></tr><tr><td style="font-weight:bold;vertical-align:top;">web2py_path</td><td style="vertical-align:top;">:</td><td><div>/Users/sidneyeubanks/Google Drive/Developer/Dropshipping/web2py</div></td></tr><tr><td style="font-weight:bold;vertical-align:top;">web2py_version</td><td style="vertical-align:top;">:</td><td><div>2.14.6-stable+timestamp.2016.05.10.00.21.47</div></td></tr><tr><td style="font-weight:bold;vertical-align:top;">wsgi.errors</td><td style="vertical-align:top;">:</td><td><div>&lt;open file &#x27;&lt;stderr&gt;&#x27;, mode &#x27;w&#x27; at 0x104b441e0&gt;</div></td></tr><tr><td style="font-weight:bold;vertical-align:top;">wsgi.file_wrapper</td><td style="vertical-align:top;">:</td><td><div>&lt;class wsgiref.util.FileWrapper at 0x105ae08d8&gt;</div></td></tr><tr><td style="font-weight:bold;vertical-align:top;">wsgi.input</td><td style="vertical-align:top;">:</td><td><div>&lt;socket._fileobject object at 0x10b294550&gt;</div></td></tr><tr><td style="font-weight:bold;vertical-align:top;">wsgi.multiprocess</td><td style="vertical-align:top;">:</td><td><div>False</div></td></tr><tr><td style="font-weight:bold;vertical-align:top;">wsgi.multithread</td><td style="vertical-align:top;">:</td><td><div>True</div></td></tr><tr><td style="font-weight:bold;vertical-align:top;">wsgi.run_once</td><td style="vertical-align:top;">:</td><td><div>False</div></td></tr><tr><td style="font-weight:bold;vertical-align:top;">wsgi.url_scheme</td><td style="vertical-align:top;">:</td><td><div>http</div></td></tr><tr><td style="font-weight:bold;vertical-align:top;">wsgi.version</td><td style="vertical-align:top;">:</td><td><div><table><tr><td><div>1</div></td></tr><tr><td><div>0</div></td></tr></table></div></td></tr><tr><td style="font-weight:bold;vertical-align:top;">wsgi_errors</td><td style="vertical-align:top;">:</td><td><div>&lt;open file &#x27;&lt;stderr&gt;&#x27;, mode &#x27;w&#x27; at 0x104b441e0&gt;</div></td></tr><tr><td style="font-weight:bold;vertical-align:top;">wsgi_file_wrapper</td><td style="vertical-align:top;">:</td><td><div>&lt;class wsgiref.util.FileWrapper at 0x105ae08d8&gt;</div></td></tr><tr><td style="font-weight:bold;vertical-align:top;">wsgi_input</td><td style="vertical-align:top;">:</td><td><div>&lt;socket._fileobject object at 0x10b294550&gt;</div></td></tr><tr><td style="font-weight:bold;vertical-align:top;">wsgi_multiprocess</td><td style="vertical-align:top;">:</td><td><div>False</div></td></tr><tr><td style="font-weight:bold;vertical-align:top;">wsgi_multithread</td><td style="vertical-align:top;">:</td><td><div>True</div></td></tr><tr><td style="font-weight:bold;vertical-align:top;">wsgi_run_once</td><td style="vertical-align:top;">:</td><td><div>False</div></td></tr><tr><td style="font-weight:bold;vertical-align:top;">wsgi_url_scheme</td><td style="vertical-align:top;">:</td><td><div>http</div></td></tr><tr><td style="font-weight:bold;vertical-align:top;">wsgi_version</td><td style="vertical-align:top;">:</td><td><div><table><tr><td><div>1</div></td></tr><tr><td><div>0</div></td></tr></table></div></td></tr></table></div></td></tr><tr><td style="font-weight:bold;vertical-align:top;">extension</td><td style="vertical-align:top;">:</td><td><div>html</div></td></tr><tr><td style="font-weight:bold;vertical-align:top;">folder</td><td style="vertical-align:top;">:</td><td><div>/Users/sidneyeubanks/Google Drive/Developer/Dropshipping/web2py/applications/Dropshipping/</div></td></tr><tr><td style="font-weight:bold;vertical-align:top;">function</td><td style="vertical-align:top;">:</td><td><div>index</div></td></tr><tr><td style="font-weight:bold;vertical-align:top;">global_settings</td><td style="vertical-align:top;">:</td><td><div><table><tr><td style="font-weight:bold;vertical-align:top;">app_folders</td><td style="vertical-align:top;">:</td><td><div>set([&#x27;/Users/sidneyeubanks/Google Drive/Developer/Dropshipping/web2py/applications/Dropshipping/&#x27;, &#x27;/Users/sidneyeubanks/Google Drive/Developer/Dropshipping/web2py/applications/admin/&#x27;, &#x27;/Users/sidneyeubanks/Google Drive/Developer/Dropshipping/web2py/applications/welcome/&#x27;])</div></td></tr><tr><td style="font-weight:bold;vertical-align:top;">applications_parent</td><td style="vertical-align:top;">:</td><td><div>/Users/sidneyeubanks/Google Drive/Developer/Dropshipping/web2py</div></td></tr><tr><td style="font-weight:bold;vertical-align:top;">cmd_args</td><td style="vertical-align:top;">:</td><td><div><table></table></div></td></tr><tr><td style="font-weight:bold;vertical-align:top;">cmd_options</td><td style="vertical-align:top;">:</td><td><div>&lt;Values at 0x105b43830: {&#x27;verbose&#x27;: False, &#x27;ip&#x27;: &#x27;127.0.0.1&#x27;, &#x27;debuglevel&#x27;: 30, &#x27;with_scheduler&#x27;: False, &#x27;shutdown_timeout&#x27;: 5, &#x27;taskbar&#x27;: False, &#x27;with_coverage&#x27;: False, &#x27;pid_filename&#x27;: &#x27;httpserver.pid&#x27;, &#x27;maxthreads&#x27;: None, &#x27;softcron&#x27;: False, &#x27;server_name&#x27;: &#x27;Sidneys-MacBook-Pro.local&#x27;, &#x27;bpython&#x27;: False, &#x27;nogui&#x27;: False, &#x27;port&#x27;: 8000, &#x27;print_errors&#x27;: True, &#x27;extcron&#x27;: False, &#x27;runcron&#x27;: False, &#x27;run_system_tests&#x27;: False, &#x27;test&#x27;: None, &#x27;folder&#x27;: &#x27;/Users/sidneyeubanks/Google Drive/Developer/Dropshipping/web2py&#x27;, &#x27;config&#x27;: &#x27;&#x27;, &#x27;minthreads&#x27;: None, &#x27;shell&#x27;: None, &#x27;run&#x27;: &#x27;&#x27;, &#x27;log_filename&#x27;: &#x27;httpserver.log&#x27;, &#x27;profiler_dir&#x27;: None, &#x27;args&#x27;: [&#x27;&#x27;], &#x27;socket_timeout&#x27;: 5, &#x27;ssl_ca_certificate&#x27;: None, &#x27;scheduler&#x27;: None, &#x27;interfaces&#x27;: None, &#x27;ssl_private_key&#x27;: &#x27;&#x27;, &#x27;gae&#x27;: None, &#x27;password&#x27;: &#x27;******&#x27;, &#x27;request_queue_size&#x27;: 5, &#x27;ssl_certificate&#x27;: &#x27;&#x27;, &#x27;cronjob&#x27;: False, &#x27;numthreads&#x27;: None, &#x27;quiet&#x27;: False, &#x27;import_models&#x27;: False, &#x27;timeout&#x27;: 10, &#x27;plain&#x27;: False, &#x27;nobanner&#x27;: False}&gt;</div></td></tr><tr><td style="font-weight:bold;vertical-align:top;">db_sessions</td><td style="vertical-align:top;">:</td><td><div>set([])</div></td></tr><tr><td style="font-weight:bold;vertical-align:top;">debugging</td><td style="vertical-align:top;">:</td><td><div>False</div></td></tr><tr><td style="font-weight:bold;vertical-align:top;">gluon_parent</td><td style="vertical-align:top;">:</td><td><div>/Users/sidneyeubanks/Google Drive/Developer/Dropshipping/web2py</div></td></tr><tr><td style="font-weight:bold;vertical-align:top;">is_jython</td><td style="vertical-align:top;">:</td><td><div>False</div></td></tr><tr><td style="font-weight:bold;vertical-align:top;">is_pypy</td><td style="vertical-align:top;">:</td><td><div>False</div></td></tr><tr><td style="font-weight:bold;vertical-align:top;">is_source</td><td style="vertical-align:top;">:</td><td><div>True</div></td></tr><tr><td style="font-weight:bold;vertical-align:top;">local_hosts</td><td style="vertical-align:top;">:</td><td><div><table><tr><td><div>::ffff:127.0.0.1</div></td></tr><tr><td><div>::1</div></td></tr><tr><td><div>fe80::1%lo0</div></td></tr><tr><td><div>sidneys-macbook-pro.local</div></td></tr><tr><td><div>Sidneys-MacBook-Pro.local</div></td></tr><tr><td><div>127.0.0.1</div></td></tr></table></div></td></tr><tr><td style="font-weight:bold;vertical-align:top;">web2py_version</td><td style="vertical-align:top;">:</td><td><div>2.14.6-stable+timestamp.2016.05.10.00.21.47</div></td></tr></table></div></td></tr><tr><td style="font-weight:bold;vertical-align:top;">is_https</td><td style="vertical-align:top;">:</td><td><div>False</div></td></tr><tr><td style="font-weight:bold;vertical-align:top;">is_local</td><td style="vertical-align:top;">:</td><td><div>True</div></td></tr><tr><td style="font-weight:bold;vertical-align:top;">is_restful</td><td style="vertical-align:top;">:</td><td><div>False</div></td></tr><tr><td style="font-weight:bold;vertical-align:top;">is_scheduler</td><td style="vertical-align:top;">:</td><td><div>False</div></td></tr><tr><td style="font-weight:bold;vertical-align:top;">is_shell</td><td style="vertical-align:top;">:</td><td><div>False</div></td></tr><tr><td style="font-weight:bold;vertical-align:top;">now</td><td style="vertical-align:top;">:</td><td><div>datetime.datetime(2016, 10, 19, 10, 31, 20, 835761)</div></td></tr><tr><td style="font-weight:bold;vertical-align:top;">raw_args</td><td style="vertical-align:top;">:</td><td><div></div></td></tr><tr><td style="font-weight:bold;vertical-align:top;">raw_extension</td><td style="vertical-align:top;">:</td><td><div>None</div></td></tr><tr><td style="font-weight:bold;vertical-align:top;">url</td><td style="vertical-align:top;">:</td><td><div>/Dropshipping/default/index</div></td></tr><tr><td style="font-weight:bold;vertical-align:top;">utcnow</td><td style="vertical-align:top;">:</td><td><div>datetime.datetime(2016, 10, 19, 17, 31, 20, 835774)</div></td></tr><tr><td style="font-weight:bold;vertical-align:top;">wsgi</td><td style="vertical-align:top;">:</td><td><div>&lt;gluon.main.LazyWSGI object at 0x10b354ed0&gt;</div></td></tr></table></div>'
tRp58
sS'frames'
p59
(lp60
(dp61
S'file'
p62
S'/Users/sidneyeubanks/Google Drive/Developer/Dropshipping/web2py/gluon/restricted.py'
p63
sS'dump'
p64
(dp65
S'environment'
p66
S"{'A': <class 'gluon.html.A'>, 'ANY_OF': <class 'gluon.validators.ANY_OF'>, 'ASSIGNJS': <function ASSIGNJS>, 'AppConfig': <function AppConfig>, 'Auth': <class 'gluon.tools.Auth'>, 'B': <class 'gluon.html.B'>, 'BEAUTIFY': <class 'gluon.html.BEAUTIFY'>, 'BODY': <class 'gluon.html.BODY'>, 'BR': <class 'gluon.html.BR'>, 'BUTTON': <class 'gluon.html.BUTTON'>, ...}"
p67
sS'ccode'
p68
S'<code object <module> at 0x10b9f75b0, file "/Use...s/Dropshipping/views/default/index.html", line 1>'
p69
ssS'lnum'
p70
I227
sS'lines'
p71
(dp72
I224
S'            ccode = code'
p73
sI225
S'        else:'
p74
sI226
S'            ccode = compile2(code, layer)'
p75
sI227
S'        exec ccode in environment'
p76
sI228
S'    except HTTP:'
p77
sI229
S'        raise'
p78
sI230
S'    except RestrictedError:'
p79
sI231
S'        # do not encapsulate (obfuscate) the original RestrictedError'
p80
sI222
S'    try:'
p81
sI223
S'        if isinstance(code, types.CodeType):'
p82
ssS'call'
p83
S'(code=r"left_sidebar_enabled,right_sidebar_enabled=False...t>\\n  </body>\\n</html>\\n</html>\\n\', escape=False)", environment={\'A\': <class \'gluon.html.A\'>, \'ANY_OF\': <class \'gluon.validators.ANY_OF\'>, \'ASSIGNJS\': <function ASSIGNJS>, \'AppConfig\': <function AppConfig>, \'Auth\': <class \'gluon.tools.Auth\'>, \'B\': <class \'gluon.html.B\'>, \'BEAUTIFY\': <class \'gluon.html.BEAUTIFY\'>, \'BODY\': <class \'gluon.html.BODY\'>, \'BR\': <class \'gluon.html.BR\'>, \'BUTTON\': <class \'gluon.html.BUTTON\'>, ...}, layer=\'/Users/sidneyeubanks/Google Drive/Developer/Drop...pplications/Dropshipping/views/default/index.html\')'
p84
sS'func'
p85
S'restricted'
p86
sa(dp87
g62
S'/Users/sidneyeubanks/Google Drive/Developer/Dropshipping/web2py/applications/Dropshipping/views/default/index.html'
p88
sg64
(dp89
S'src'
p90
S'undefined'
p91
sS'div'
p92
g91
sS'alt'
p93
g91
sS'img'
p94
g91
ssg70
I226
sg71
(dp95
I224
S'response.write(\'" alt="Owl Image"></div>\\n        </div>\\n\\n    </div>\\n\', escape=False)'
p96
sI225
S'response.write(\'\\n    <div class="\', escape=False)'
p97
sI226
S'response.write(middle_column)'
p98
sI227
S'response.write(\'">\\n        \', escape=False)'
p99
sI228
S"response.write('\\n        ', escape=False)"
p100
sI229
S"response.write('\\n\\n', escape=False)"
p101
sI230
S"response.write('\\n\\n', escape=False)"
p102
sI231
S"response.write('\\n        \\n\\n', escape=False)"
p103
sI232
S"if 'message' in globals():"
p104
sI233
S"    response.write('\\n    <h2>', escape=False)"
p105
sI234
S'    response.write(message)'
p106
sI235
S'    response.write(\'</h2>\\n    <p class="lead">\', escape=False)'
p107
sI236
S"    response.write(T('How did you get here?'))"
p108
sI217
S"response.write(URL('static', 'images/owl5.jpg'))"
p109
sI218
S'response.write(\'" alt="Owl Image"></div>\\n            <div class="item"><img src="\', escape=False)'
p110
sI219
S"response.write(URL('static', 'images/owl6.jpg'))"
p111
sI220
S'response.write(\'" alt="Owl Image"></div>\\n            <div class="item"><img src="\', escape=False)'
p112
sI221
S"response.write(URL('static', 'images/owl7.jpg'))"
p113
sI222
S'response.write(\'" alt="Owl Image"></div>\\n            <div class="item"><img src="\', escape=False)'
p114
sI223
S"response.write(URL('static', 'images/owl8.jpg'))"
p115
ssg83
S'()'
p116
sg85
S'<module>'
p117
sasS'pyver'
p118
S'Python 2.7.10: /usr/bin/python (prefix: /System/Library/Frameworks/Python.framework/Versions/2.7)'
p119
sS'session'
p120
g57
(S's\x1a\x00\x00\x00<div><table></table></div>'
tRp121
sS'etype'
p122
S"<type 'exceptions.NameError'>"
p123
sS'date'
p124
S'Wed Oct 19 10:31:20 2016'
p125
sS'response'
p126
g57
(S's\xb6?\x00\x00<div><table><tr><td style="font-weight:bold;vertical-align:top;">body</td><td style="vertical-align:top;">:</td><td><div>&lt;cStringIO.StringO object at 0x10b2dc228&gt;</div></td></tr><tr><td style="font-weight:bold;vertical-align:top;">cookies</td><td style="vertical-align:top;">:</td><td><div><table><tr><td style="font-weight:bold;vertical-align:top;">session_id_dropshipping</td><td style="vertical-align:top;">:</td><td><div>127.0.0.1-bd520feb-0f73-4df5-a25c-2350d941bb54<table><tr><td style="font-weight:bold;vertical-align:top;">comment</td><td style="vertical-align:top;">:</td><td><div></div></td></tr><tr><td style="font-weight:bold;vertical-align:top;">domain</td><td style="vertical-align:top;">:</td><td><div></div></td></tr><tr><td style="font-weight:bold;vertical-align:top;">expires</td><td style="vertical-align:top;">:</td><td><div></div></td></tr><tr><td style="font-weight:bold;vertical-align:top;">httponly</td><td style="vertical-align:top;">:</td><td><div></div></td></tr><tr><td style="font-weight:bold;vertical-align:top;">max-age</td><td style="vertical-align:top;">:</td><td><div></div></td></tr><tr><td style="font-weight:bold;vertical-align:top;">path</td><td style="vertical-align:top;">:</td><td><div>/</div></td></tr><tr><td style="font-weight:bold;vertical-align:top;">secure</td><td style="vertical-align:top;">:</td><td><div></div></td></tr><tr><td style="font-weight:bold;vertical-align:top;">version</td><td style="vertical-align:top;">:</td><td><div></div></td></tr></table></div></td></tr></table></div></td></tr><tr><td style="font-weight:bold;vertical-align:top;">delimiters</td><td style="vertical-align:top;">:</td><td><div><table><tr><td><div>{{</div></td></tr><tr><td><div>}}</div></td></tr></table></div></td></tr><tr><td style="font-weight:bold;vertical-align:top;">files</td><td style="vertical-align:top;">:</td><td><div><table><tr><td><div>/Dropshipping/static/js/jquery.js</div></td></tr><tr><td><div>/Dropshipping/static/css/calendar.css</div></td></tr><tr><td><div>/Dropshipping/static/js/calendar.js</div></td></tr><tr><td><div>/Dropshipping/static/js/web2py.js</div></td></tr></table></div></td></tr><tr><td style="font-weight:bold;vertical-align:top;">flash</td><td style="vertical-align:top;">:</td><td><div>Welcome to Dropshipping</div></td></tr><tr><td style="font-weight:bold;vertical-align:top;">form_label_separator</td><td style="vertical-align:top;">:</td><td><div></div></td></tr><tr><td style="font-weight:bold;vertical-align:top;">formstyle</td><td style="vertical-align:top;">:</td><td><div>bootstrap3_inline</div></td></tr><tr><td style="font-weight:bold;vertical-align:top;">generic_patterns</td><td style="vertical-align:top;">:</td><td><div><table><tr><td><div>*</div></td></tr></table></div></td></tr><tr><td style="font-weight:bold;vertical-align:top;">google_analytics_id</td><td style="vertical-align:top;">:</td><td><div>None</div></td></tr><tr><td style="font-weight:bold;vertical-align:top;">headers</td><td style="vertical-align:top;">:</td><td><div><table><tr><td style="font-weight:bold;vertical-align:top;">X-Powered-By</td><td style="vertical-align:top;">:</td><td><div>web2py</div></td></tr></table></div></td></tr><tr><td style="font-weight:bold;vertical-align:top;">logo</td><td style="vertical-align:top;">:</td><td><div><a class="navbar-brand" href="http://www.web2py.com/" id="web2py-logo"><b>web<span>2</span>py</b>&trade;&nbsp;</a></div></td></tr><tr><td style="font-weight:bold;vertical-align:top;">menu</td><td style="vertical-align:top;">:</td><td><div><table><tr><td><div><table><tr><td><div>Home</div></td></tr><tr><td><div>False</div></td></tr><tr><td><div>/Dropshipping/default/index</div></td></tr><tr><td><div><table></table></div></td></tr></table></div></td></tr><tr><td><div><table><tr><td><div>My Sites</div></td></tr><tr><td><div>False</div></td></tr><tr><td><div>/admin/default/site</div></td></tr></table></div></td></tr><tr><td><div><table><tr><td><div>This App</div></td></tr><tr><td><div>False</div></td></tr><tr><td><div>#</div></td></tr><tr><td><div><table><tr><td><div><table><tr><td><div>Design</div></td></tr><tr><td><div>False</div></td></tr><tr><td><div>/admin/default/design/Dropshipping</div></td></tr></table></div></td></tr><tr><td><div><li class="divider"></li></div></td></tr><tr><td><div><table><tr><td><div>Controller</div></td></tr><tr><td><div>False</div></td></tr><tr><td><div>/admin/default/edit/Dropshipping/controllers/default.py</div></td></tr></table></div></td></tr><tr><td><div><table><tr><td><div>View</div></td></tr><tr><td><div>False</div></td></tr><tr><td><div>/admin/default/edit/Dropshipping/views/default/index.html</div></td></tr></table></div></td></tr><tr><td><div><table><tr><td><div>DB Model</div></td></tr><tr><td><div>False</div></td></tr><tr><td><div>/admin/default/edit/Dropshipping/models/db.py</div></td></tr></table></div></td></tr><tr><td><div><table><tr><td><div>Menu Model</div></td></tr><tr><td><div>False</div></td></tr><tr><td><div>/admin/default/edit/Dropshipping/models/menu.py</div></td></tr></table></div></td></tr><tr><td><div><table><tr><td><div>Config.ini</div></td></tr><tr><td><div>False</div></td></tr><tr><td><div>/admin/default/edit/Dropshipping/private/appconfig.ini</div></td></tr></table></div></td></tr><tr><td><div><table><tr><td><div>Layout</div></td></tr><tr><td><div>False</div></td></tr><tr><td><div>/admin/default/edit/Dropshipping/views/layout.html</div></td></tr></table></div></td></tr><tr><td><div><table><tr><td><div>Stylesheet</div></td></tr><tr><td><div>False</div></td></tr><tr><td><div>/admin/default/edit/Dropshipping/static/css/web2py-bootstrap3.css</div></td></tr></table></div></td></tr><tr><td><div><table><tr><td><div>Database</div></td></tr><tr><td><div>False</div></td></tr><tr><td><div>/Dropshipping/appadmin/index</div></td></tr></table></div></td></tr><tr><td><div><table><tr><td><div>Errors</div></td></tr><tr><td><div>False</div></td></tr><tr><td><div>/admin/default/errors/Dropshipping</div></td></tr></table></div></td></tr><tr><td><div><table><tr><td><div>About</div></td></tr><tr><td><div>False</div></td></tr><tr><td><div>/admin/default/about/Dropshipping</div></td></tr></table></div></td></tr></table></div></td></tr></table></div></td></tr><tr><td><div><table><tr><td><div>web2py.com</div></td></tr><tr><td><div>False</div></td></tr><tr><td><div>#</div></td></tr><tr><td><div><table><tr><td><div><table><tr><td><div>Download</div></td></tr><tr><td><div>False</div></td></tr><tr><td><div>http://www.web2py.com/examples/default/download</div></td></tr></table></div></td></tr><tr><td><div><table><tr><td><div>Support</div></td></tr><tr><td><div>False</div></td></tr><tr><td><div>http://www.web2py.com/examples/default/support</div></td></tr></table></div></td></tr><tr><td><div><table><tr><td><div>Demo</div></td></tr><tr><td><div>False</div></td></tr><tr><td><div>http://web2py.com/demo_admin</div></td></tr></table></div></td></tr><tr><td><div><table><tr><td><div>Quick Examples</div></td></tr><tr><td><div>False</div></td></tr><tr><td><div>http://web2py.com/examples/default/examples</div></td></tr></table></div></td></tr><tr><td><div><table><tr><td><div>FAQ</div></td></tr><tr><td><div>False</div></td></tr><tr><td><div>http://web2py.com/AlterEgo</div></td></tr></table></div></td></tr><tr><td><div><table><tr><td><div>Videos</div></td></tr><tr><td><div>False</div></td></tr><tr><td><div>http://www.web2py.com/examples/default/videos/</div></td></tr></table></div></td></tr><tr><td><div><table><tr><td><div>Free Applications</div></td></tr><tr><td><div>False</div></td></tr><tr><td><div>http://web2py.com/appliances</div></td></tr></table></div></td></tr><tr><td><div><table><tr><td><div>Plugins</div></td></tr><tr><td><div>False</div></td></tr><tr><td><div>http://web2py.com/plugins</div></td></tr></table></div></td></tr><tr><td><div><table><tr><td><div>Recipes</div></td></tr><tr><td><div>False</div></td></tr><tr><td><div>http://web2pyslices.com/</div></td></tr></table></div></td></tr></table></div></td></tr></table></div></td></tr><tr><td><div><table><tr><td><div>Documentation</div></td></tr><tr><td><div>False</div></td></tr><tr><td><div>#</div></td></tr><tr><td><div><table><tr><td><div><table><tr><td><div>Online book</div></td></tr><tr><td><div>False</div></td></tr><tr><td><div>http://www.web2py.com/book</div></td></tr></table></div></td></tr><tr><td><div><li class="divider"></li></div></td></tr><tr><td><div><table><tr><td><div>Preface</div></td></tr><tr><td><div>False</div></td></tr><tr><td><div>http://www.web2py.com/book/default/chapter/00</div></td></tr></table></div></td></tr><tr><td><div><table><tr><td><div>Introduction</div></td></tr><tr><td><div>False</div></td></tr><tr><td><div>http://www.web2py.com/book/default/chapter/01</div></td></tr></table></div></td></tr><tr><td><div><table><tr><td><div>Python</div></td></tr><tr><td><div>False</div></td></tr><tr><td><div>http://www.web2py.com/book/default/chapter/02</div></td></tr></table></div></td></tr><tr><td><div><table><tr><td><div>Overview</div></td></tr><tr><td><div>False</div></td></tr><tr><td><div>http://www.web2py.com/book/default/chapter/03</div></td></tr></table></div></td></tr><tr><td><div><table><tr><td><div>The Core</div></td></tr><tr><td><div>False</div></td></tr><tr><td><div>http://www.web2py.com/book/default/chapter/04</div></td></tr></table></div></td></tr><tr><td><div><table><tr><td><div>The Views</div></td></tr><tr><td><div>False</div></td></tr><tr><td><div>http://www.web2py.com/book/default/chapter/05</div></td></tr></table></div></td></tr><tr><td><div><table><tr><td><div>Database</div></td></tr><tr><td><div>False</div></td></tr><tr><td><div>http://www.web2py.com/book/default/chapter/06</div></td></tr></table></div></td></tr><tr><td><div><table><tr><td><div>Forms and Validators</div></td></tr><tr><td><div>False</div></td></tr><tr><td><div>http://www.web2py.com/book/default/chapter/07</div></td></tr></table></div></td></tr><tr><td><div><table><tr><td><div>Email and SMS</div></td></tr><tr><td><div>False</div></td></tr><tr><td><div>http://www.web2py.com/book/default/chapter/08</div></td></tr></table></div></td></tr><tr><td><div><table><tr><td><div>Access Control</div></td></tr><tr><td><div>False</div></td></tr><tr><td><div>http://www.web2py.com/book/default/chapter/09</div></td></tr></table></div></td></tr><tr><td><div><table><tr><td><div>Services</div></td></tr><tr><td><div>False</div></td></tr><tr><td><div>http://www.web2py.com/book/default/chapter/10</div></td></tr></table></div></td></tr><tr><td><div><table><tr><td><div>Ajax Recipes</div></td></tr><tr><td><div>False</div></td></tr><tr><td><div>http://www.web2py.com/book/default/chapter/11</div></td></tr></table></div></td></tr><tr><td><div><table><tr><td><div>Components and Plugins</div></td></tr><tr><td><div>False</div></td></tr><tr><td><div>http://www.web2py.com/book/default/chapter/12</div></td></tr></table></div></td></tr><tr><td><div><table><tr><td><div>Deployment Recipes</div></td></tr><tr><td><div>False</div></td></tr><tr><td><div>http://www.web2py.com/book/default/chapter/13</div></td></tr></table></div></td></tr><tr><td><div><table><tr><td><div>Other Recipes</div></td></tr><tr><td><div>False</div></td></tr><tr><td><div>http://www.web2py.com/book/default/chapter/14</div></td></tr></table></div></td></tr><tr><td><div><table><tr><td><div>Helping web2py</div></td></tr><tr><td><div>False</div></td></tr><tr><td><div>http://www.web2py.com/book/default/chapter/15</div></td></tr></table></div></td></tr><tr><td><div><table><tr><td><div>Buy web2py\'s book</div></td></tr><tr><td><div>False</div></td></tr><tr><td><div>http://stores.lulu.com/web2py</div></td></tr></table></div></td></tr></table></div></td></tr></table></div></td></tr><tr><td><div><table><tr><td><div>Community</div></td></tr><tr><td><div>False</div></td></tr><tr><td><div>None</div></td></tr><tr><td><div><table><tr><td><div><table><tr><td><div>Groups</div></td></tr><tr><td><div>False</div></td></tr><tr><td><div>http://www.web2py.com/examples/default/usergroups</div></td></tr></table></div></td></tr><tr><td><div><table><tr><td><div>Twitter</div></td></tr><tr><td><div>False</div></td></tr><tr><td><div>http://twitter.com/web2py</div></td></tr></table></div></td></tr><tr><td><div><table><tr><td><div>Live Chat</div></td></tr><tr><td><div>False</div></td></tr><tr><td><div>http://webchat.freenode.net/?channels=web2py</div></td></tr></table></div></td></tr></table></div></td></tr></table></div></td></tr></table></div></td></tr><tr><td style="font-weight:bold;vertical-align:top;">meta</td><td style="vertical-align:top;">:</td><td><div><table><tr><td style="font-weight:bold;vertical-align:top;">author</td><td style="vertical-align:top;">:</td><td><div>Your Name &lt;you@example.com&gt;</div></td></tr><tr><td style="font-weight:bold;vertical-align:top;">description</td><td style="vertical-align:top;">:</td><td><div>a cool new app</div></td></tr><tr><td style="font-weight:bold;vertical-align:top;">generator</td><td style="vertical-align:top;">:</td><td><div>Web2py Web Framework</div></td></tr><tr><td style="font-weight:bold;vertical-align:top;">keywords</td><td style="vertical-align:top;">:</td><td><div><table><tr><td><div>web2py</div></td></tr><tr><td><div>python</div></td></tr><tr><td><div>framework</div></td></tr></table></div></td></tr></table></div></td></tr><tr><td style="font-weight:bold;vertical-align:top;">models_to_run</td><td style="vertical-align:top;">:</td><td><div><table><tr><td><div>^\\w+\\.py$</div></td></tr><tr><td><div>^default/\\w+\\.py$</div></td></tr><tr><td><div>^default/index/\\w+\\.py$</div></td></tr></table></div></td></tr><tr><td style="font-weight:bold;vertical-align:top;">postprocessing</td><td style="vertical-align:top;">:</td><td><div><table></table></div></td></tr><tr><td style="font-weight:bold;vertical-align:top;">session_client</td><td style="vertical-align:top;">:</td><td><div>127.0.0.1</div></td></tr><tr><td style="font-weight:bold;vertical-align:top;">session_cookie_compression_level</td><td style="vertical-align:top;">:</td><td><div>None</div></td></tr><tr><td style="font-weight:bold;vertical-align:top;">session_cookie_expires</td><td style="vertical-align:top;">:</td><td><div>None</div></td></tr><tr><td style="font-weight:bold;vertical-align:top;">session_data_name</td><td style="vertical-align:top;">:</td><td><div>session_data_dropshipping</div></td></tr><tr><td style="font-weight:bold;vertical-align:top;">session_file</td><td style="vertical-align:top;">:</td><td><div>None</div></td></tr><tr><td style="font-weight:bold;vertical-align:top;">session_filename</td><td style="vertical-align:top;">:</td><td><div>/Users/sidneyeubanks/Google Drive/Developer/Dropshipping/web2py/applications/Dropshipping/sessions/127.0.0.1-bd520feb-0f73-4df5-a25c-2350d941bb54</div></td></tr><tr><td style="font-weight:bold;vertical-align:top;">session_hash</td><td style="vertical-align:top;">:</td><td><div>c0762cbf4baf7f9af97c051e7fcb8083</div></td></tr><tr><td style="font-weight:bold;vertical-align:top;">session_id</td><td style="vertical-align:top;">:</td><td><div>127.0.0.1-bd520feb-0f73-4df5-a25c-2350d941bb54</div></td></tr><tr><td style="font-weight:bold;vertical-align:top;">session_id_name</td><td style="vertical-align:top;">:</td><td><div>session_id_dropshipping</div></td></tr><tr><td style="font-weight:bold;vertical-align:top;">session_masterapp</td><td style="vertical-align:top;">:</td><td><div>Dropshipping</div></td></tr><tr><td style="font-weight:bold;vertical-align:top;">session_new</td><td style="vertical-align:top;">:</td><td><div>True</div></td></tr><tr><td style="font-weight:bold;vertical-align:top;">session_storage_type</td><td style="vertical-align:top;">:</td><td><div>file</div></td></tr><tr><td style="font-weight:bold;vertical-align:top;">status</td><td style="vertical-align:top;">:</td><td><div>200</div></td></tr><tr><td style="font-weight:bold;vertical-align:top;">subtitle</td><td style="vertical-align:top;">:</td><td><div></div></td></tr><tr><td style="font-weight:bold;vertical-align:top;">title</td><td style="vertical-align:top;">:</td><td><div>Dropshipping</div></td></tr><tr><td style="font-weight:bold;vertical-align:top;">view</td><td style="vertical-align:top;">:</td><td><div>default/index.html</div></td></tr></table></div>'
tRp127
sS'locals'
p128
(dp129
S'Service'
p130
S"<class 'gluon.tools.Service'>"
p131
sS'OBJECT'
p132
S"<class 'gluon.html.OBJECT'>"
p133
sS'SQLDB'
p134
S"<class 'pydal.base.DAL'>"
p135
sg120
S'<Storage {}>'
p136
sS'LINK'
p137
S"<class 'gluon.html.LINK'>"
p138
sS'BR'
p139
S"<class 'gluon.html.BR'>"
p140
sS'local_import'
p141
S'<function <lambda>>'
p142
sS'OPTGROUP'
p143
S"<class 'gluon.html.OPTGROUP'>"
p144
sS'__package__'
p145
S'None'
p146
sS'PRE'
p147
S"<class 'gluon.html.PRE'>"
p148
sS'IS_INT_IN_RANGE'
p149
S"<class 'gluon.validators.IS_INT_IN_RANGE'>"
p150
sS'left_sidebar_enabled'
p151
S'False'
p152
sS'IS_LOWER'
p153
S"<class 'gluon.validators.IS_LOWER'>"
p154
sS'IS_STRONG'
p155
S"<class 'gluon.validators.IS_STRONG'>"
p156
sS'cache'
p157
S'<gluon.cache.Cache object>'
p158
sS'IS_IN_DB'
p159
S"<class 'gluon.validators.IS_IN_DB'>"
p160
sS'TAG'
p161
S'<gluon.html.__TAG__ object>'
p162
sS'SQLField'
p163
S"<class 'pydal.objects.Field'>"
p164
sS'mail'
p165
S'<gluon.tools.Mail object>'
p166
sS'BODY'
p167
S"<class 'gluon.html.BODY'>"
p168
sS'IS_DATE_IN_RANGE'
p169
S"<class 'gluon.validators.IS_DATE_IN_RANGE'>"
p170
sS'IFRAME'
p171
S"<class 'gluon.html.IFRAME'>"
p172
sS'URL'
p173
S'<function URL>'
p174
sS'__file__'
p175
S"'/Users/sidneyeubanks/Google Drive/Developer/Drop...pplications/Dropshipping/views/default/index.html'"
p176
sS'db'
p177
S'<DAL uri="sqlite://storage.sqlite">'
p178
sS'auth'
p179
S'<gluon.tools.Auth object>'
p180
sS'P'
S"<class 'gluon.html.P'>"
p181
sS'TFOOT'
p182
S"<class 'gluon.html.TFOOT'>"
p183
sS'XHTML'
p184
S"<class 'gluon.html.XHTML'>"
p185
sS'ON'
p186
S'True'
p187
sS'OL'
p188
S"<class 'gluon.html.OL'>"
p189
sS'TEXTAREA'
p190
S"<class 'gluon.html.TEXTAREA'>"
p191
sS'MENU'
p192
S"<class 'gluon.html.MENU'>"
p193
sS'IS_IMAGE'
p194
S"<class 'gluon.validators.IS_IMAGE'>"
p195
sS'EM'
p196
S"<class 'gluon.html.EM'>"
p197
sS'CODE'
p198
S"<class 'gluon.html.CODE'>"
p199
sS'HTTP'
p200
S"<class 'gluon.http.HTTP'>"
p201
sS'HR'
p202
S"<class 'gluon.html.HR'>"
p203
sS'IS_DATETIME'
p204
S"<class 'gluon.validators.IS_DATETIME'>"
p205
sS'STYLE'
p206
S"<class 'gluon.html.STYLE'>"
p207
sS'LABEL'
p208
S"<class 'gluon.html.LABEL'>"
p209
sS'CLEANUP'
p210
S"<class 'gluon.validators.CLEANUP'>"
p211
sS'plugins'
p212
S'<gluon.tools.PluginManager object>'
p213
sS'SELECT'
p214
S"<class 'gluon.html.SELECT'>"
p215
sS'CENTER'
p216
S"<class 'gluon.html.CENTER'>"
p217
sS'Auth'
p218
S"<class 'gluon.tools.Auth'>"
p219
sS'DEVELOPMENT_MENU'
p220
g187
sS'__builtins__'
p221
S"{'ArithmeticError': <type 'exceptions.ArithmeticError'>, 'AssertionError': <type 'exceptions.AssertionError'>, 'AttributeError': <type 'exceptions.AttributeError'>, 'BaseException': <type 'exceptions.BaseException'>, 'BufferError': <type 'exceptions.BufferError'>, 'BytesWarning': <type 'exceptions.BytesWarning'>, 'DeprecationWarning': <type 'exceptions.DeprecationWarning'>, 'EOFError': <type 'exceptions.EOFError'>, 'Ellipsis': Ellipsis, 'EnvironmentError': <type 'exceptions.EnvironmentError'>, ...}"
p222
sS'HTML'
p223
S"<class 'gluon.html.HTML'>"
p224
sS'SQLFORM'
p225
S"<class 'gluon.sqlhtml.SQLFORM'>"
p226
sS'LOAD'
p227
S'<function LOAD>'
p228
sS'redirect'
p229
S'<function redirect>'
p230
sS'FIELDSET'
p231
S"<class 'gluon.html.FIELDSET'>"
p232
sS'IS_EQUAL_TO'
p233
S"<class 'gluon.validators.IS_EQUAL_TO'>"
p234
sS'embed64'
p235
S'<function embed64>'
p236
sS'IS_LIST_OF'
p237
S"<class 'gluon.validators.IS_LIST_OF'>"
p238
sS'INPUT'
p239
S"<class 'gluon.html.INPUT'>"
p240
sS'EMBED'
p241
S"<class 'gluon.html.EMBED'>"
p242
sS'_'
S'<function _>'
p243
sS'myconf'
p244
S"{'forms': {'formstyle': 'bootstrap3_inline', 'se...': {'names': 'localhost:*, 127.0.0.1:*, *:*, *'}}"
p245
sS'H2'
p246
S"<class 'gluon.html.H2'>"
p247
sS'H3'
p248
S"<class 'gluon.html.H3'>"
p249
sS'AppConfig'
p250
S'<function AppConfig>'
p251
sS'H1'
p252
S"<class 'gluon.html.H1'>"
p253
sS'H6'
p254
S"<class 'gluon.html.H6'>"
p255
sS'H4'
p256
S"<class 'gluon.html.H4'>"
p257
sS'H5'
p258
S"<class 'gluon.html.H5'>"
p259
sS'UL'
p260
S"<class 'gluon.html.UL'>"
p261
sS'IS_UPPER'
p262
S"<class 'gluon.validators.IS_UPPER'>"
p263
sS'xmlescape'
p264
S'<function xmlescape>'
p265
sS'IS_TIME'
p266
S"<class 'gluon.validators.IS_TIME'>"
p267
sS'OPTION'
p268
S"<class 'gluon.html.OPTION'>"
p269
sS'TITLE'
p270
S"<class 'gluon.html.TITLE'>"
p271
sS'CRYPT'
p272
S"<class 'gluon.validators.CRYPT'>"
p273
sS'IS_EMPTY_OR'
p274
S"<class 'gluon.validators.IS_EMPTY_OR'>"
p275
sS'MARKMIN'
p276
S"<class 'gluon.html.MARKMIN'>"
p277
sS'__name__'
p278
S"'__restricted__'"
p279
sS'message'
p280
S"<lazyT 'Welcome to web2py!Dropshipping'>"
p281
sS'STRONG'
p282
S"<class 'gluon.html.STRONG'>"
p283
sS'COL'
p284
S"<class 'gluon.html.COL'>"
p285
sS'service'
p286
S'<gluon.tools.Service object>'
p287
sS'SCRIPT'
p288
S"<class 'gluon.html.SCRIPT'>"
p289
sS'TABLE'
p290
S"<class 'gluon.html.TABLE'>"
p291
sS'IS_IPV4'
p292
S"<class 'gluon.validators.IS_IPV4'>"
p293
sS'IS_LENGTH'
p294
S"<class 'gluon.validators.IS_LENGTH'>"
p295
sS'IS_IPV6'
p296
S"<class 'gluon.validators.IS_IPV6'>"
p297
sS'XML'
p298
S"<class 'gluon.html.XML'>"
p299
sS'B'
S"<class 'gluon.html.B'>"
p300
sS'IMG'
p301
S"<class 'gluon.html.IMG'>"
p302
sS'SQLTABLE'
p303
S"<class 'gluon.sqlhtml.SQLTABLE'>"
p304
sS'IS_MATCH'
p305
S"<class 'gluon.validators.IS_MATCH'>"
p306
sS'IS_ALPHANUMERIC'
p307
S"<class 'gluon.validators.IS_ALPHANUMERIC'>"
p308
sS'SPAN'
p309
S"<class 'gluon.html.SPAN'>"
p310
sS'IS_JSON'
p311
S"<class 'gluon.validators.IS_JSON'>"
p312
sS'IS_IPADDRESS'
p313
S"<class 'gluon.validators.IS_IPADDRESS'>"
p314
sS'IS_SLUG'
p315
S"<class 'gluon.validators.IS_SLUG'>"
p316
sS'BEAUTIFY'
p317
S"<class 'gluon.html.BEAUTIFY'>"
p318
sS'META'
p319
S"<class 'gluon.html.META'>"
p320
sS'BUTTON'
p321
S"<class 'gluon.html.BUTTON'>"
p322
sS'IS_DATE'
p323
S"<class 'gluon.validators.IS_DATE'>"
p324
sS'IS_EMAIL'
p325
S"<class 'gluon.validators.IS_EMAIL'>"
p326
sS'IS_NOT_EMPTY'
p327
S"<class 'gluon.validators.IS_NOT_EMPTY'>"
p328
sS'IS_FLOAT_IN_RANGE'
p329
S"<class 'gluon.validators.IS_FLOAT_IN_RANGE'>"
p330
sS'TBODY'
p331
S"<class 'gluon.html.TBODY'>"
p332
sS'CAT'
p333
S"<class 'gluon.html.CAT'>"
p334
sS'Field'
p335
S"<class 'pydal.objects.Field'>"
p336
sS'IS_LIST_OF_EMAILS'
p337
S"<class 'gluon.validators.IS_LIST_OF_EMAILS'>"
p338
sS'DIV'
p339
S"<class 'gluon.html.DIV'>"
p340
sS'LEGEND'
p341
S"<class 'gluon.html.LEGEND'>"
p342
sS'COLGROUP'
p343
S"<class 'gluon.html.COLGROUP'>"
p344
sS'DAL'
p345
S"<class 'pydal.base.DAL'>"
p346
sS'ASSIGNJS'
p347
S'<function ASSIGNJS>'
p348
sS'TR'
p349
S"<class 'gluon.html.TR'>"
p350
sS'LI'
p351
S"<class 'gluon.html.LI'>"
p352
sS'right_sidebar_enabled'
p353
g187
sS'TH'
p354
S"<class 'gluon.html.TH'>"
p355
sS'TD'
p356
S"<class 'gluon.html.TD'>"
p357
sS'PluginManager'
p358
S"<class 'gluon.tools.PluginManager'>"
p359
sS'IS_URL'
p360
S"<class 'gluon.validators.IS_URL'>"
p361
sS'A'
S"<class 'gluon.html.A'>"
p362
sS'HEAD'
p363
S"<class 'gluon.html.HEAD'>"
p364
sS'IS_DATETIME_IN_RANGE'
p365
S"<class 'gluon.validators.IS_DATETIME_IN_RANGE'>"
p366
sS'FORM'
p367
S"<class 'gluon.html.FORM'>"
p368
sS'I'
S"<class 'gluon.html.I'>"
p369
sS'IS_NOT_IN_DB'
p370
S"<class 'gluon.validators.IS_NOT_IN_DB'>"
p371
sg126
S"<Storage {'body': <cStringIO.StringO object at 0...> at 0x10ad35c08>, 'view': 'default/index.html'}>"
p372
sS'THEAD'
p373
S"<class 'gluon.html.THEAD'>"
p374
sS'ANY_OF'
p375
S"<class 'gluon.validators.ANY_OF'>"
p376
sS'IS_NULL_OR'
p377
S"<class 'gluon.validators.IS_EMPTY_OR'>"
p378
sg56
S"<Storage {'_vars': None, 'function': 'index', 'c...Dropshipping/web2py/applications/Dropshipping/'}>"
p379
sS'IS_EXPR'
p380
S"<class 'gluon.validators.IS_EXPR'>"
p381
sS'T'
S'<gluon.languages.translator object>'
p382
sS'IS_IN_SET'
p383
S"<class 'gluon.validators.IS_IN_SET'>"
p384
sS'IS_UPLOAD_FILENAME'
p385
S"<class 'gluon.validators.IS_UPLOAD_FILENAME'>"
p386
sS'TT'
p387
S"<class 'gluon.html.TT'>"
p388
sS'IS_DECIMAL_IN_RANGE'
p389
S"<class 'gluon.validators.IS_DECIMAL_IN_RANGE'>"
p390
sssS'traceback'
p391
S'Traceback (most recent call last):\n  File "/Users/sidneyeubanks/Google Drive/Developer/Dropshipping/web2py/gluon/restricted.py", line 227, in restricted\n    exec ccode in environment\n  File "/Users/sidneyeubanks/Google Drive/Developer/Dropshipping/web2py/applications/Dropshipping/views/default/index.html", line 226, in <module>\n    <div class="item"><img src="{{=URL(\'static\', \'images/owl8.jpg\')}}" alt="Owl Image"></div>\nNameError: name \'middle_column\' is not defined\n'
p392
s.