(dp1
S'output'
p2
S'<class \'gluon.contrib.pypyodbc.ProgrammingError\'> (u\'42S01\', u"[42S01] [Microsoft][ODBC SQL Server Driver][SQL Server]There is already an object named \'auth_user\' in the database.")'
p3
sS'layer'
p4
S'C:\\Users\\Brian\\Documents\\Dropshipping\\web2py\\applications\\Dropshipping\\models\\db.py'
p5
sS'code'
p6
S'# -*- coding: utf-8 -*-\n\n# -------------------------------------------------------------------------\n# This scaffolding model makes your app work on Google App Engine too\n# File is released under public domain and you can use without limitations\n# -------------------------------------------------------------------------\n\nif request.global_settings.web2py_version < "2.14.1":\n    raise HTTP(500, "Requires web2py 2.13.3 or newer")\n\n# -------------------------------------------------------------------------\n# if SSL/HTTPS is properly configured and you want all HTTP requests to\n# be redirected to HTTPS, uncomment the line below:\n# -------------------------------------------------------------------------\n# request.requires_https()\n\n# -------------------------------------------------------------------------\n# app configuration made easy. Look inside private/appconfig.ini\n# -------------------------------------------------------------------------\nfrom gluon.contrib.appconfig import AppConfig\n\n# -------------------------------------------------------------------------\n# once in production, remove reload=True to gain full speed\n# -------------------------------------------------------------------------\nmyconf = AppConfig(reload=True)\n\nif not request.env.web2py_runtime_gae:\n    # ---------------------------------------------------------------------\n    # if NOT running on Google App Engine use SQLite or other DB\n    # ---------------------------------------------------------------------\n    db = DAL(myconf.get(\'db.uri\'),\n             pool_size=myconf.get(\'db.pool_size\'),\n             migrate_enabled=myconf.get(\'db.migrate\'),\n             check_reserved=[\'all\'])\nelse:\n    # ---------------------------------------------------------------------\n    # connect to Google BigTable (optional \'google:datastore://namespace\')\n    # ---------------------------------------------------------------------\n    db = DAL(\'google:datastore+ndb\')\n    # ---------------------------------------------------------------------\n    # store sessions and tickets there\n    # ---------------------------------------------------------------------\n    session.connect(request, response, db=db)\n    # ---------------------------------------------------------------------\n    # or store session in Memcache, Redis, etc.\n    # from gluon.contrib.memdb import MEMDB\n    # from google.appengine.api.memcache import Client\n    # session.connect(request, response, db = MEMDB(Client()))\n    # ---------------------------------------------------------------------\n\n# -------------------------------------------------------------------------\n# by default give a view/generic.extension to all actions from localhost\n# none otherwise. a pattern can be \'controller/function.extension\'\n# -------------------------------------------------------------------------\nresponse.generic_patterns = [\'*\'] if request.is_local else []\n# -------------------------------------------------------------------------\n# choose a style for forms\n# -------------------------------------------------------------------------\nresponse.formstyle = myconf.get(\'forms.formstyle\')  # or \'bootstrap3_stacked\' or \'bootstrap2\' or other\nresponse.form_label_separator = myconf.get(\'forms.separator\') or \'\'\n\n# -------------------------------------------------------------------------\n# (optional) optimize handling of static files\n# -------------------------------------------------------------------------\n# response.optimize_css = \'concat,minify,inline\'\n# response.optimize_js = \'concat,minify,inline\'\n\n# -------------------------------------------------------------------------\n# (optional) static assets folder versioning\n# -------------------------------------------------------------------------\n# response.static_version = \'0.0.0\'\n\n# -------------------------------------------------------------------------\n# Here is sample code if you need for\n# - email capabilities\n# - authentication (registration, login, logout, ... )\n# - authorization (role based authorization)\n# - services (xml, csv, json, xmlrpc, jsonrpc, amf, rss)\n# - old style crud actions\n# (more options discussed in gluon/tools.py)\n# -------------------------------------------------------------------------\n\nfrom gluon.tools import Auth, Service, PluginManager\n\n# host names must be a list of allowed host names (glob syntax allowed)\nauth = Auth(db, host_names=myconf.get(\'host.names\'))\nservice = Service()\nplugins = PluginManager()\n\n# -------------------------------------------------------------------------\n# create all tables needed by auth if not custom tables\n# -------------------------------------------------------------------------\nauth.define_tables(username=False, signature=False)\n\n# -------------------------------------------------------------------------\n# configure email\n# -------------------------------------------------------------------------\nmail = auth.settings.mailer\nmail.settings.server = \'logging\' if request.is_local else myconf.get(\'smtp.server\')\nmail.settings.sender = myconf.get(\'smtp.sender\')\nmail.settings.login = myconf.get(\'smtp.login\')\nmail.settings.tls = myconf.get(\'smtp.tls\') or False\nmail.settings.ssl = myconf.get(\'smtp.ssl\') or False\n\n# -------------------------------------------------------------------------\n# configure auth policy\n# -------------------------------------------------------------------------\nauth.settings.registration_requires_verification = False\nauth.settings.registration_requires_approval = False\nauth.settings.reset_password_requires_verification = True\n\n# -------------------------------------------------------------------------\n# Define your tables below (or better in another model file) for example\n#\n# >>> db.define_table(\'mytable\', Field(\'myfield\', \'string\'))\n#\n# Fields can be \'string\',\'text\',\'password\',\'integer\',\'double\',\'boolean\'\n#       \'date\',\'time\',\'datetime\',\'blob\',\'upload\', \'reference TABLENAME\'\n# There is an implicit \'id integer autoincrement\' field\n# Consult manual for more options, validators, etc.\n#\n# More API examples for controllers:\n#\n# >>> db.mytable.insert(myfield=\'value\')\n# >>> rows = db(db.mytable.myfield == \'value\').select(db.mytable.ALL)\n# >>> for row in rows: print row.id, row.myfield\n# -------------------------------------------------------------------------\n\n# -------------------------------------------------------------------------\n# after defining tables, uncomment below to enable auditing\n# -------------------------------------------------------------------------\n# auth.enable_record_versioning(db)\n'
p7
sS'snapshot'
p8
(dp9
S'exception'
p10
(dp11
S'__module__'
p12
S"'gluon.contrib.pypyodbc'"
p13
sS'__getslice__'
p14
S"<method-wrapper '__getslice__' of ProgrammingError object>"
p15
sS'__str__'
p16
S"<method-wrapper '__str__' of ProgrammingError object>"
p17
sS'__reduce__'
p18
S'<built-in method __reduce__ of ProgrammingError object>'
p19
sS'__dict__'
p20
S'{\'value\': (u\'42S01\', u"[42S01] [Microsoft][ODBC SQL Server Driver][SQ...ady an object named \'auth_user\' in the database.")}'
p21
sS'__sizeof__'
p22
S'<built-in method __sizeof__ of ProgrammingError object>'
p23
sS'__weakref__'
p24
S'None'
p25
sS'__init__'
p26
S'<bound method ProgrammingError.__init__ of Progr...y an object named \'auth_user\' in the database.")>'
p27
sS'__setattr__'
p28
S"<method-wrapper '__setattr__' of ProgrammingError object>"
p29
sS'__reduce_ex__'
p30
S'<built-in method __reduce_ex__ of ProgrammingError object>'
p31
sS'__new__'
p32
S'<built-in method __new__ of type object>'
p33
sS'__format__'
p34
S'<built-in method __format__ of ProgrammingError object>'
p35
sS'__class__'
p36
S"<class 'gluon.contrib.pypyodbc.ProgrammingError'>"
p37
sS'__doc__'
p38
S'None'
p39
sS'__getitem__'
p40
S"<method-wrapper '__getitem__' of ProgrammingError object>"
p41
sS'__setstate__'
p42
S'<built-in method __setstate__ of ProgrammingError object>'
p43
sS'__getattribute__'
p44
S"<method-wrapper '__getattribute__' of ProgrammingError object>"
p45
sS'args'
p46
S'(u\'42S01\', u"[42S01] [Microsoft][ODBC SQL Server Driver][SQ...ady an object named \'auth_user\' in the database.")'
p47
sS'__subclasshook__'
p48
S'<built-in method __subclasshook__ of type object>'
p49
sS'__unicode__'
p50
S'<built-in method __unicode__ of ProgrammingError object>'
p51
sS'value'
p52
S'(u\'42S01\', u"[42S01] [Microsoft][ODBC SQL Server Driver][SQ...ady an object named \'auth_user\' in the database.")'
p53
sS'__delattr__'
p54
S"<method-wrapper '__delattr__' of ProgrammingError object>"
p55
sS'__repr__'
p56
S"<method-wrapper '__repr__' of ProgrammingError object>"
p57
sS'__hash__'
p58
S"<method-wrapper '__hash__' of ProgrammingError object>"
p59
ssS'evalue'
p60
S'(u\'42S01\', u"[42S01] [Microsoft][ODBC SQL Server Driver][SQL Server]There is already an object named \'auth_user\' in the database.")'
p61
sS'request'
p62
cgluon.html
XML_unpickle
p63
(S's\xd4X\x00\x00<div><table><tr><td style="font-weight:bold;vertical-align:top;">ajax</td><td style="vertical-align:top;">:</td><td><div>False</div></td></tr><tr><td style="font-weight:bold;vertical-align:top;">application</td><td style="vertical-align:top;">:</td><td><div>Dropshipping</div></td></tr><tr><td style="font-weight:bold;vertical-align:top;">args</td><td style="vertical-align:top;">:</td><td><div><table></table></div></td></tr><tr><td style="font-weight:bold;vertical-align:top;">cid</td><td style="vertical-align:top;">:</td><td><div>None</div></td></tr><tr><td style="font-weight:bold;vertical-align:top;">client</td><td style="vertical-align:top;">:</td><td><div>127.0.0.1</div></td></tr><tr><td style="font-weight:bold;vertical-align:top;">controller</td><td style="vertical-align:top;">:</td><td><div>default</div></td></tr><tr><td style="font-weight:bold;vertical-align:top;">cookies</td><td style="vertical-align:top;">:</td><td><div><table><tr><td style="font-weight:bold;vertical-align:top;">session_id_admin</td><td style="vertical-align:top;">:</td><td><div>127.0.0.1-360930cd-d8bb-4388-9917-339a90ccbae1<table><tr><td style="font-weight:bold;vertical-align:top;">comment</td><td style="vertical-align:top;">:</td><td><div></div></td></tr><tr><td style="font-weight:bold;vertical-align:top;">domain</td><td style="vertical-align:top;">:</td><td><div></div></td></tr><tr><td style="font-weight:bold;vertical-align:top;">expires</td><td style="vertical-align:top;">:</td><td><div></div></td></tr><tr><td style="font-weight:bold;vertical-align:top;">httponly</td><td style="vertical-align:top;">:</td><td><div></div></td></tr><tr><td style="font-weight:bold;vertical-align:top;">max-age</td><td style="vertical-align:top;">:</td><td><div></div></td></tr><tr><td style="font-weight:bold;vertical-align:top;">path</td><td style="vertical-align:top;">:</td><td><div></div></td></tr><tr><td style="font-weight:bold;vertical-align:top;">secure</td><td style="vertical-align:top;">:</td><td><div></div></td></tr><tr><td style="font-weight:bold;vertical-align:top;">version</td><td style="vertical-align:top;">:</td><td><div></div></td></tr></table></div></td></tr><tr><td style="font-weight:bold;vertical-align:top;">session_id_welcome</td><td style="vertical-align:top;">:</td><td><div>127.0.0.1-da7359dd-8a97-470c-9ff0-c22378bb2d12<table><tr><td style="font-weight:bold;vertical-align:top;">comment</td><td style="vertical-align:top;">:</td><td><div></div></td></tr><tr><td style="font-weight:bold;vertical-align:top;">domain</td><td style="vertical-align:top;">:</td><td><div></div></td></tr><tr><td style="font-weight:bold;vertical-align:top;">expires</td><td style="vertical-align:top;">:</td><td><div></div></td></tr><tr><td style="font-weight:bold;vertical-align:top;">httponly</td><td style="vertical-align:top;">:</td><td><div></div></td></tr><tr><td style="font-weight:bold;vertical-align:top;">max-age</td><td style="vertical-align:top;">:</td><td><div></div></td></tr><tr><td style="font-weight:bold;vertical-align:top;">path</td><td style="vertical-align:top;">:</td><td><div></div></td></tr><tr><td style="font-weight:bold;vertical-align:top;">secure</td><td style="vertical-align:top;">:</td><td><div></div></td></tr><tr><td style="font-weight:bold;vertical-align:top;">version</td><td style="vertical-align:top;">:</td><td><div></div></td></tr></table></div></td></tr></table></div></td></tr><tr><td style="font-weight:bold;vertical-align:top;">env</td><td style="vertical-align:top;">:</td><td><div><table><tr><td style="font-weight:bold;vertical-align:top;">HTTP_ACCEPT</td><td style="vertical-align:top;">:</td><td><div>text/html,application/xhtml+xml,application/xml;q=0.9,image/webp,*/*;q=0.8</div></td></tr><tr><td style="font-weight:bold;vertical-align:top;">HTTP_ACCEPT_ENCODING</td><td style="vertical-align:top;">:</td><td><div>gzip, deflate, sdch, br</div></td></tr><tr><td style="font-weight:bold;vertical-align:top;">HTTP_ACCEPT_LANGUAGE</td><td style="vertical-align:top;">:</td><td><div>en-US,en;q=0.8,es;q=0.6</div></td></tr><tr><td style="font-weight:bold;vertical-align:top;">HTTP_CONNECTION</td><td style="vertical-align:top;">:</td><td><div>keep-alive</div></td></tr><tr><td style="font-weight:bold;vertical-align:top;">HTTP_COOKIE</td><td style="vertical-align:top;">:</td><td><div>session_id_welcome=127.0.0.1-da7359dd-8a97-470c-9ff0-c22378bb2d12; session_id_admin=127.0.0.1-360930cd-d8bb-4388-9917-339a90ccbae1</div></td></tr><tr><td style="font-weight:bold;vertical-align:top;">HTTP_HOST</td><td style="vertical-align:top;">:</td><td><div>127.0.0.1:8000</div></td></tr><tr><td style="font-weight:bold;vertical-align:top;">HTTP_REFERER</td><td style="vertical-align:top;">:</td><td><div>http://127.0.0.1:8000/admin/default/site</div></td></tr><tr><td style="font-weight:bold;vertical-align:top;">HTTP_UPGRADE_INSECURE_REQUESTS</td><td style="vertical-align:top;">:</td><td><div>1</div></td></tr><tr><td style="font-weight:bold;vertical-align:top;">HTTP_USER_AGENT</td><td style="vertical-align:top;">:</td><td><div>Mozilla/5.0 (Windows NT 10.0; WOW64) AppleWebKit/537.36 (KHTML, like Gecko) Chrome/54.0.2840.99 Safari/537.36</div></td></tr><tr><td style="font-weight:bold;vertical-align:top;">PATH_INFO</td><td style="vertical-align:top;">:</td><td><div>/Dropshipping/default/index</div></td></tr><tr><td style="font-weight:bold;vertical-align:top;">QUERY_STRING</td><td style="vertical-align:top;">:</td><td><div></div></td></tr><tr><td style="font-weight:bold;vertical-align:top;">REMOTE_ADDR</td><td style="vertical-align:top;">:</td><td><div>127.0.0.1</div></td></tr><tr><td style="font-weight:bold;vertical-align:top;">REMOTE_PORT</td><td style="vertical-align:top;">:</td><td><div>4306</div></td></tr><tr><td style="font-weight:bold;vertical-align:top;">REQUEST_METHOD</td><td style="vertical-align:top;">:</td><td><div>GET</div></td></tr><tr><td style="font-weight:bold;vertical-align:top;">SCRIPT_NAME</td><td style="vertical-align:top;">:</td><td><div></div></td></tr><tr><td style="font-weight:bold;vertical-align:top;">SERVER_NAME</td><td style="vertical-align:top;">:</td><td><div>Blade</div></td></tr><tr><td style="font-weight:bold;vertical-align:top;">SERVER_PORT</td><td style="vertical-align:top;">:</td><td><div>8000</div></td></tr><tr><td style="font-weight:bold;vertical-align:top;">SERVER_PROTOCOL</td><td style="vertical-align:top;">:</td><td><div>HTTP/1.1</div></td></tr><tr><td style="font-weight:bold;vertical-align:top;">SERVER_SOFTWARE</td><td style="vertical-align:top;">:</td><td><div>Rocket 1.2.6</div></td></tr><tr><td style="font-weight:bold;vertical-align:top;">app_folders</td><td style="vertical-align:top;">:</td><td><div>set([&#x27;C:\\\\Users\\\\Brian\\\\Documents\\\\Dropshipping\\\\web2py\\\\applications\\\\Dropshipping\\\\&#x27;, &#x27;C:\\\\Users\\\\Brian\\\\Documents\\\\Dropshipping\\\\web2py\\\\applications\\\\welcome\\\\&#x27;, &#x27;C:\\\\Users\\\\Brian\\\\Documents\\\\Dropshipping\\\\web2py\\\\applications\\\\admin\\\\&#x27;])</div></td></tr><tr><td style="font-weight:bold;vertical-align:top;">applications_parent</td><td style="vertical-align:top;">:</td><td><div>C:\\Users\\Brian\\Documents\\Dropshipping\\web2py</div></td></tr><tr><td style="font-weight:bold;vertical-align:top;">cmd_args</td><td style="vertical-align:top;">:</td><td><div><table></table></div></td></tr><tr><td style="font-weight:bold;vertical-align:top;">cmd_options</td><td style="vertical-align:top;">:</td><td><div>&lt;Values at 0x421b0c8: {&#x27;verbose&#x27;: False, &#x27;ip&#x27;: &#x27;127.0.0.1&#x27;, &#x27;debuglevel&#x27;: 30, &#x27;with_scheduler&#x27;: False, &#x27;shutdown_timeout&#x27;: 5, &#x27;taskbar&#x27;: False, &#x27;with_coverage&#x27;: False, &#x27;pid_filename&#x27;: &#x27;httpserver.pid&#x27;, &#x27;maxthreads&#x27;: None, &#x27;softcron&#x27;: False, &#x27;server_name&#x27;: &#x27;Blade&#x27;, &#x27;bpython&#x27;: False, &#x27;nogui&#x27;: False, &#x27;port&#x27;: 8000, &#x27;print_errors&#x27;: False, &#x27;extcron&#x27;: False, &#x27;runcron&#x27;: False, &#x27;run_system_tests&#x27;: False, &#x27;test&#x27;: None, &#x27;folder&#x27;: &#x27;C:\\\\Users\\\\Brian\\\\Documents\\\\Dropshipping\\\\web2py&#x27;, &#x27;config&#x27;: &#x27;&#x27;, &#x27;minthreads&#x27;: None, &#x27;shell&#x27;: None, &#x27;run&#x27;: &#x27;&#x27;, &#x27;log_filename&#x27;: &#x27;httpserver.log&#x27;, &#x27;profiler_dir&#x27;: None, &#x27;args&#x27;: [&#x27;&#x27;], &#x27;socket_timeout&#x27;: 5, &#x27;ssl_ca_certificate&#x27;: None, &#x27;scheduler&#x27;: None, &#x27;interfaces&#x27;: None, &#x27;ssl_private_key&#x27;: &#x27;&#x27;, &#x27;gae&#x27;: None, &#x27;password&#x27;: &#x27;******&#x27;, &#x27;request_queue_size&#x27;: 5, &#x27;ssl_certificate&#x27;: &#x27;&#x27;, &#x27;cronjob&#x27;: False, &#x27;numthreads&#x27;: None, &#x27;quiet&#x27;: False, &#x27;import_models&#x27;: False, &#x27;timeout&#x27;: 10, &#x27;plain&#x27;: False, &#x27;nobanner&#x27;: False}&gt;</div></td></tr><tr><td style="font-weight:bold;vertical-align:top;">db_sessions</td><td style="vertical-align:top;">:</td><td><div>set([])</div></td></tr><tr><td style="font-weight:bold;vertical-align:top;">debugging</td><td style="vertical-align:top;">:</td><td><div>False</div></td></tr><tr><td style="font-weight:bold;vertical-align:top;">gluon_parent</td><td style="vertical-align:top;">:</td><td><div>C:\\Users\\Brian\\Documents\\Dropshipping\\web2py</div></td></tr><tr><td style="font-weight:bold;vertical-align:top;">http_accept</td><td style="vertical-align:top;">:</td><td><div>text/html,application/xhtml+xml,application/xml;q=0.9,image/webp,*/*;q=0.8</div></td></tr><tr><td style="font-weight:bold;vertical-align:top;">http_accept_encoding</td><td style="vertical-align:top;">:</td><td><div>gzip, deflate, sdch, br</div></td></tr><tr><td style="font-weight:bold;vertical-align:top;">http_accept_language</td><td style="vertical-align:top;">:</td><td><div>en-US,en;q=0.8,es;q=0.6</div></td></tr><tr><td style="font-weight:bold;vertical-align:top;">http_connection</td><td style="vertical-align:top;">:</td><td><div>keep-alive</div></td></tr><tr><td style="font-weight:bold;vertical-align:top;">http_cookie</td><td style="vertical-align:top;">:</td><td><div>session_id_welcome=127.0.0.1-da7359dd-8a97-470c-9ff0-c22378bb2d12; session_id_admin=127.0.0.1-360930cd-d8bb-4388-9917-339a90ccbae1</div></td></tr><tr><td style="font-weight:bold;vertical-align:top;">http_host</td><td style="vertical-align:top;">:</td><td><div>127.0.0.1:8000</div></td></tr><tr><td style="font-weight:bold;vertical-align:top;">http_referer</td><td style="vertical-align:top;">:</td><td><div>http://127.0.0.1:8000/admin/default/site</div></td></tr><tr><td style="font-weight:bold;vertical-align:top;">http_upgrade_insecure_requests</td><td style="vertical-align:top;">:</td><td><div>1</div></td></tr><tr><td style="font-weight:bold;vertical-align:top;">http_user_agent</td><td style="vertical-align:top;">:</td><td><div>Mozilla/5.0 (Windows NT 10.0; WOW64) AppleWebKit/537.36 (KHTML, like Gecko) Chrome/54.0.2840.99 Safari/537.36</div></td></tr><tr><td style="font-weight:bold;vertical-align:top;">is_jython</td><td style="vertical-align:top;">:</td><td><div>False</div></td></tr><tr><td style="font-weight:bold;vertical-align:top;">is_pypy</td><td style="vertical-align:top;">:</td><td><div>False</div></td></tr><tr><td style="font-weight:bold;vertical-align:top;">is_source</td><td style="vertical-align:top;">:</td><td><div>True</div></td></tr><tr><td style="font-weight:bold;vertical-align:top;">local_hosts</td><td style="vertical-align:top;">:</td><td><div><table><tr><td><div>fe80::c5c2:2792:34f:cdd5%22</div></td></tr><tr><td><div>Blade.ucsc.edu</div></td></tr><tr><td><div>Blade</div></td></tr><tr><td><div>::ffff:127.0.0.1</div></td></tr><tr><td><div>::1</div></td></tr><tr><td><div>fe80::200:5efe:169.233.239.200%6</div></td></tr><tr><td><div>127.0.0.1</div></td></tr><tr><td><div>169.233.239.200</div></td></tr></table></div></td></tr><tr><td style="font-weight:bold;vertical-align:top;">path_info</td><td style="vertical-align:top;">:</td><td><div>/Dropshipping/default/index</div></td></tr><tr><td style="font-weight:bold;vertical-align:top;">query_string</td><td style="vertical-align:top;">:</td><td><div></div></td></tr><tr><td style="font-weight:bold;vertical-align:top;">remote_addr</td><td style="vertical-align:top;">:</td><td><div>127.0.0.1</div></td></tr><tr><td style="font-weight:bold;vertical-align:top;">remote_port</td><td style="vertical-align:top;">:</td><td><div>4306</div></td></tr><tr><td style="font-weight:bold;vertical-align:top;">request_method</td><td style="vertical-align:top;">:</td><td><div>GET</div></td></tr><tr><td style="font-weight:bold;vertical-align:top;">request_uri</td><td style="vertical-align:top;">:</td><td><div>/Dropshipping/default/index</div></td></tr><tr><td style="font-weight:bold;vertical-align:top;">script_name</td><td style="vertical-align:top;">:</td><td><div></div></td></tr><tr><td style="font-weight:bold;vertical-align:top;">server_name</td><td style="vertical-align:top;">:</td><td><div>Blade</div></td></tr><tr><td style="font-weight:bold;vertical-align:top;">server_port</td><td style="vertical-align:top;">:</td><td><div>8000</div></td></tr><tr><td style="font-weight:bold;vertical-align:top;">server_protocol</td><td style="vertical-align:top;">:</td><td><div>HTTP/1.1</div></td></tr><tr><td style="font-weight:bold;vertical-align:top;">server_software</td><td style="vertical-align:top;">:</td><td><div>Rocket 1.2.6</div></td></tr><tr><td style="font-weight:bold;vertical-align:top;">web2py_path</td><td style="vertical-align:top;">:</td><td><div>C:\\Users\\Brian\\Documents\\Dropshipping\\web2py</div></td></tr><tr><td style="font-weight:bold;vertical-align:top;">web2py_version</td><td style="vertical-align:top;">:</td><td><div>2.14.6-stable+timestamp.2016.05.10.00.21.47</div></td></tr><tr><td style="font-weight:bold;vertical-align:top;">wsgi.errors</td><td style="vertical-align:top;">:</td><td><div>&lt;open file &#x27;&lt;stderr&gt;&#x27;, mode &#x27;w&#x27; at 0x0000000002A6B150&gt;</div></td></tr><tr><td style="font-weight:bold;vertical-align:top;">wsgi.file_wrapper</td><td style="vertical-align:top;">:</td><td><div>&lt;class wsgiref.util.FileWrapper at 0x0000000004676D68&gt;</div></td></tr><tr><td style="font-weight:bold;vertical-align:top;">wsgi.input</td><td style="vertical-align:top;">:</td><td><div>&lt;socket._fileobject object at 0x0000000005689A20&gt;</div></td></tr><tr><td style="font-weight:bold;vertical-align:top;">wsgi.multiprocess</td><td style="vertical-align:top;">:</td><td><div>False</div></td></tr><tr><td style="font-weight:bold;vertical-align:top;">wsgi.multithread</td><td style="vertical-align:top;">:</td><td><div>True</div></td></tr><tr><td style="font-weight:bold;vertical-align:top;">wsgi.run_once</td><td style="vertical-align:top;">:</td><td><div>False</div></td></tr><tr><td style="font-weight:bold;vertical-align:top;">wsgi.url_scheme</td><td style="vertical-align:top;">:</td><td><div>http</div></td></tr><tr><td style="font-weight:bold;vertical-align:top;">wsgi.version</td><td style="vertical-align:top;">:</td><td><div><table><tr><td><div>1</div></td></tr><tr><td><div>0</div></td></tr></table></div></td></tr><tr><td style="font-weight:bold;vertical-align:top;">wsgi_errors</td><td style="vertical-align:top;">:</td><td><div>&lt;open file &#x27;&lt;stderr&gt;&#x27;, mode &#x27;w&#x27; at 0x0000000002A6B150&gt;</div></td></tr><tr><td style="font-weight:bold;vertical-align:top;">wsgi_file_wrapper</td><td style="vertical-align:top;">:</td><td><div>&lt;class wsgiref.util.FileWrapper at 0x0000000004676D68&gt;</div></td></tr><tr><td style="font-weight:bold;vertical-align:top;">wsgi_input</td><td style="vertical-align:top;">:</td><td><div>&lt;socket._fileobject object at 0x0000000005689A20&gt;</div></td></tr><tr><td style="font-weight:bold;vertical-align:top;">wsgi_multiprocess</td><td style="vertical-align:top;">:</td><td><div>False</div></td></tr><tr><td style="font-weight:bold;vertical-align:top;">wsgi_multithread</td><td style="vertical-align:top;">:</td><td><div>True</div></td></tr><tr><td style="font-weight:bold;vertical-align:top;">wsgi_run_once</td><td style="vertical-align:top;">:</td><td><div>False</div></td></tr><tr><td style="font-weight:bold;vertical-align:top;">wsgi_url_scheme</td><td style="vertical-align:top;">:</td><td><div>http</div></td></tr><tr><td style="font-weight:bold;vertical-align:top;">wsgi_version</td><td style="vertical-align:top;">:</td><td><div><table><tr><td><div>1</div></td></tr><tr><td><div>0</div></td></tr></table></div></td></tr></table></div></td></tr><tr><td style="font-weight:bold;vertical-align:top;">extension</td><td style="vertical-align:top;">:</td><td><div>html</div></td></tr><tr><td style="font-weight:bold;vertical-align:top;">folder</td><td style="vertical-align:top;">:</td><td><div>C:\\Users\\Brian\\Documents\\Dropshipping\\web2py\\applications\\Dropshipping\\</div></td></tr><tr><td style="font-weight:bold;vertical-align:top;">function</td><td style="vertical-align:top;">:</td><td><div>index</div></td></tr><tr><td style="font-weight:bold;vertical-align:top;">global_settings</td><td style="vertical-align:top;">:</td><td><div><table><tr><td style="font-weight:bold;vertical-align:top;">app_folders</td><td style="vertical-align:top;">:</td><td><div>set([&#x27;C:\\\\Users\\\\Brian\\\\Documents\\\\Dropshipping\\\\web2py\\\\applications\\\\Dropshipping\\\\&#x27;, &#x27;C:\\\\Users\\\\Brian\\\\Documents\\\\Dropshipping\\\\web2py\\\\applications\\\\welcome\\\\&#x27;, &#x27;C:\\\\Users\\\\Brian\\\\Documents\\\\Dropshipping\\\\web2py\\\\applications\\\\admin\\\\&#x27;])</div></td></tr><tr><td style="font-weight:bold;vertical-align:top;">applications_parent</td><td style="vertical-align:top;">:</td><td><div>C:\\Users\\Brian\\Documents\\Dropshipping\\web2py</div></td></tr><tr><td style="font-weight:bold;vertical-align:top;">cmd_args</td><td style="vertical-align:top;">:</td><td><div><table></table></div></td></tr><tr><td style="font-weight:bold;vertical-align:top;">cmd_options</td><td style="vertical-align:top;">:</td><td><div>&lt;Values at 0x421b0c8: {&#x27;verbose&#x27;: False, &#x27;ip&#x27;: &#x27;127.0.0.1&#x27;, &#x27;debuglevel&#x27;: 30, &#x27;with_scheduler&#x27;: False, &#x27;shutdown_timeout&#x27;: 5, &#x27;taskbar&#x27;: False, &#x27;with_coverage&#x27;: False, &#x27;pid_filename&#x27;: &#x27;httpserver.pid&#x27;, &#x27;maxthreads&#x27;: None, &#x27;softcron&#x27;: False, &#x27;server_name&#x27;: &#x27;Blade&#x27;, &#x27;bpython&#x27;: False, &#x27;nogui&#x27;: False, &#x27;port&#x27;: 8000, &#x27;print_errors&#x27;: False, &#x27;extcron&#x27;: False, &#x27;runcron&#x27;: False, &#x27;run_system_tests&#x27;: False, &#x27;test&#x27;: None, &#x27;folder&#x27;: &#x27;C:\\\\Users\\\\Brian\\\\Documents\\\\Dropshipping\\\\web2py&#x27;, &#x27;config&#x27;: &#x27;&#x27;, &#x27;minthreads&#x27;: None, &#x27;shell&#x27;: None, &#x27;run&#x27;: &#x27;&#x27;, &#x27;log_filename&#x27;: &#x27;httpserver.log&#x27;, &#x27;profiler_dir&#x27;: None, &#x27;args&#x27;: [&#x27;&#x27;], &#x27;socket_timeout&#x27;: 5, &#x27;ssl_ca_certificate&#x27;: None, &#x27;scheduler&#x27;: None, &#x27;interfaces&#x27;: None, &#x27;ssl_private_key&#x27;: &#x27;&#x27;, &#x27;gae&#x27;: None, &#x27;password&#x27;: &#x27;******&#x27;, &#x27;request_queue_size&#x27;: 5, &#x27;ssl_certificate&#x27;: &#x27;&#x27;, &#x27;cronjob&#x27;: False, &#x27;numthreads&#x27;: None, &#x27;quiet&#x27;: False, &#x27;import_models&#x27;: False, &#x27;timeout&#x27;: 10, &#x27;plain&#x27;: False, &#x27;nobanner&#x27;: False}&gt;</div></td></tr><tr><td style="font-weight:bold;vertical-align:top;">db_sessions</td><td style="vertical-align:top;">:</td><td><div>set([])</div></td></tr><tr><td style="font-weight:bold;vertical-align:top;">debugging</td><td style="vertical-align:top;">:</td><td><div>False</div></td></tr><tr><td style="font-weight:bold;vertical-align:top;">gluon_parent</td><td style="vertical-align:top;">:</td><td><div>C:\\Users\\Brian\\Documents\\Dropshipping\\web2py</div></td></tr><tr><td style="font-weight:bold;vertical-align:top;">is_jython</td><td style="vertical-align:top;">:</td><td><div>False</div></td></tr><tr><td style="font-weight:bold;vertical-align:top;">is_pypy</td><td style="vertical-align:top;">:</td><td><div>False</div></td></tr><tr><td style="font-weight:bold;vertical-align:top;">is_source</td><td style="vertical-align:top;">:</td><td><div>True</div></td></tr><tr><td style="font-weight:bold;vertical-align:top;">local_hosts</td><td style="vertical-align:top;">:</td><td><div><table><tr><td><div>fe80::c5c2:2792:34f:cdd5%22</div></td></tr><tr><td><div>Blade.ucsc.edu</div></td></tr><tr><td><div>Blade</div></td></tr><tr><td><div>::ffff:127.0.0.1</div></td></tr><tr><td><div>::1</div></td></tr><tr><td><div>fe80::200:5efe:169.233.239.200%6</div></td></tr><tr><td><div>127.0.0.1</div></td></tr><tr><td><div>169.233.239.200</div></td></tr></table></div></td></tr><tr><td style="font-weight:bold;vertical-align:top;">web2py_version</td><td style="vertical-align:top;">:</td><td><div>2.14.6-stable+timestamp.2016.05.10.00.21.47</div></td></tr></table></div></td></tr><tr><td style="font-weight:bold;vertical-align:top;">is_https</td><td style="vertical-align:top;">:</td><td><div>False</div></td></tr><tr><td style="font-weight:bold;vertical-align:top;">is_local</td><td style="vertical-align:top;">:</td><td><div>True</div></td></tr><tr><td style="font-weight:bold;vertical-align:top;">is_restful</td><td style="vertical-align:top;">:</td><td><div>False</div></td></tr><tr><td style="font-weight:bold;vertical-align:top;">is_scheduler</td><td style="vertical-align:top;">:</td><td><div>False</div></td></tr><tr><td style="font-weight:bold;vertical-align:top;">is_shell</td><td style="vertical-align:top;">:</td><td><div>False</div></td></tr><tr><td style="font-weight:bold;vertical-align:top;">now</td><td style="vertical-align:top;">:</td><td><div>datetime.datetime(2016, 11, 27, 19, 52, 55, 573000)</div></td></tr><tr><td style="font-weight:bold;vertical-align:top;">raw_args</td><td style="vertical-align:top;">:</td><td><div></div></td></tr><tr><td style="font-weight:bold;vertical-align:top;">raw_extension</td><td style="vertical-align:top;">:</td><td><div>None</div></td></tr><tr><td style="font-weight:bold;vertical-align:top;">url</td><td style="vertical-align:top;">:</td><td><div>/Dropshipping/default/index</div></td></tr><tr><td style="font-weight:bold;vertical-align:top;">utcnow</td><td style="vertical-align:top;">:</td><td><div>datetime.datetime(2016, 11, 28, 3, 52, 55, 573000)</div></td></tr><tr><td style="font-weight:bold;vertical-align:top;">wsgi</td><td style="vertical-align:top;">:</td><td><div>&lt;gluon.main.LazyWSGI object at 0x000000000512E6D8&gt;</div></td></tr></table></div>'
tRp64
sS'frames'
p65
(lp66
(dp67
S'file'
p68
S'C:\\Users\\Brian\\Documents\\Dropshipping\\web2py\\gluon\\restricted.py'
p69
sS'dump'
p70
(dp71
S'environment'
p72
S"{'A': <class 'gluon.html.A'>, 'ANY_OF': <class 'gluon.validators.ANY_OF'>, 'ASSIGNJS': <function ASSIGNJS>, 'AppConfig': <function AppConfig>, 'Auth': <class 'gluon.tools.Auth'>, 'B': <class 'gluon.html.B'>, 'BEAUTIFY': <class 'gluon.html.BEAUTIFY'>, 'BODY': <class 'gluon.html.BODY'>, 'BR': <class 'gluon.html.BR'>, 'BUTTON': <class 'gluon.html.BUTTON'>, ...}"
p73
sS'ccode'
p74
S'<code object <module> at 00000000054A1D30, file ...\\applications\\Dropshipping\\models\\db.py", line 8>'
p75
ssS'lnum'
p76
I227
sS'lines'
p77
(dp78
I224
S'            ccode = code'
p79
sI225
S'        else:'
p80
sI226
S'            ccode = compile2(code, layer)'
p81
sI227
S'        exec ccode in environment'
p82
sI228
S'    except HTTP:'
p83
sI229
S'        raise'
p84
sI230
S'    except RestrictedError:'
p85
sI231
S'        # do not encapsulate (obfuscate) the original RestrictedError'
p86
sI222
S'    try:'
p87
sI223
S'        if isinstance(code, types.CodeType):'
p88
ssS'call'
p89
S"(code='# -*- coding: utf-8 -*-\\n\\n# ---------------------...------------\\n# auth.enable_record_versioning(db)\\n', environment={'A': <class 'gluon.html.A'>, 'ANY_OF': <class 'gluon.validators.ANY_OF'>, 'ASSIGNJS': <function ASSIGNJS>, 'AppConfig': <function AppConfig>, 'Auth': <class 'gluon.tools.Auth'>, 'B': <class 'gluon.html.B'>, 'BEAUTIFY': <class 'gluon.html.BEAUTIFY'>, 'BODY': <class 'gluon.html.BODY'>, 'BR': <class 'gluon.html.BR'>, 'BUTTON': <class 'gluon.html.BUTTON'>, ...}, layer=r'C:\\Users\\Brian\\Documents\\Dropshipping\\web2py\\applications\\Dropshipping\\models\\db.py')"
p90
sS'func'
p91
S'restricted'
p92
sa(dp93
g68
S'C:\\Users\\Brian\\Documents\\Dropshipping\\web2py\\applications\\Dropshipping\\models\\db.py'
p94
sg70
(dp95
S'username'
p96
S'undefined'
p97
sS'auth.define_tables'
p98
S'<bound method Auth.define_tables of <gluon.tools.Auth object>>'
p99
sS'builtinFalse'
p100
S'False'
p101
sS'auth'
p102
S'<gluon.tools.Auth object>'
p103
sS'signature'
p104
g97
ssg76
I93
sg77
(dp105
I96
S'# configure email'
p106
sI97
S'# -------------------------------------------------------------------------'
p107
sI88
S'plugins = PluginManager()'
p108
sI89
S''
sI90
S'# -------------------------------------------------------------------------'
p109
sI91
S'# create all tables needed by auth if not custom tables'
p110
sI92
S'# -------------------------------------------------------------------------'
p111
sI93
S'auth.define_tables(username=False, signature=False)'
p112
sI94
S''
sI95
S'# -------------------------------------------------------------------------'
p113
ssg89
S'()'
p114
sg91
S'<module>'
p115
sa(dp116
g68
S'C:\\Users\\Brian\\Documents\\Dropshipping\\web2py\\gluon\\tools.py'
p117
sg70
(dp118
S'builtinformat'
p119
S'<built-in function format>'
p120
ssg76
I2376
sg77
(dp121
I2371
S'                    *extra_fields,'
p122
sI2372
S'                    **dict('
p123
sI2373
S'                        migrate=self.__get_migrate(settings.table_user_name,'
p124
sI2374
S'                                                   migrate),'
p125
sI2375
S'                        fake_migrate=fake_migrate,'
p126
sI2376
S"                        format='%(first_name)s %(last_name)s (%(id)s)'))"
p127
sI2377
S"        reference_table_user = 'reference %s' % settings.table_user_name"
p128
sI2378
S'        if settings.table_group_name not in db.tables:'
p129
sI2379
S'            extra_fields = settings.extra_fields.get('
p130
sI2380
S'                settings.table_group_name, []) + signature_list'
p131
ssg89
S'(self=<gluon.tools.Auth object>, username=False, signature=False, enable_tokens=False, migrate=True, fake_migrate=False)'
p132
sg91
S'define_tables'
p133
sa(dp134
g68
S'C:\\Users\\Brian\\Documents\\Dropshipping\\web2py\\gluon\\packages\\dal\\pydal\\base.py'
p135
sg70
(dp136
S'fields'
p137
S'(<pydal.objects.Field object>, <pydal.objects.Field object>, <pydal.objects.Field object>, <pydal.objects.Field object>, <pydal.objects.Field object>, <pydal.objects.Field object>, <pydal.objects.Field object>)'
p138
sS'self'
p139
S'<DAL uri="mssql4:******@hotkeycc.com/devora">'
p140
sS'args'
p141
S"{'fake_migrate': False, 'format': '%(first_name)s %(last_name)s (%(id)s)', 'migrate': True}"
p142
sS'tablename'
p143
S"'auth_user'"
p144
sS'table'
p145
g97
sS'self.lazy_define_table'
p146
S'<bound method DAL.lazy_define_table of <DAL uri="mssql4:******@hotkeycc.com/devora">>'
p147
ssg76
I834
sg77
(dp148
I832
S'            table = None'
p149
sI833
S'        else:'
p150
sI834
S'            table = self.lazy_define_table(tablename,*fields,**args)'
p151
sI835
S'        if not tablename in self.tables:'
p152
sI836
S'            self.tables.append(tablename)'
p153
sI837
S'        return table'
p154
sI838
S''
sI829
S'                    % (tablename,invalid_args))'
p155
sI830
S'        if self._lazy_tables and tablename not in self._LAZY_TABLES:'
p156
sI831
S'            self._LAZY_TABLES[tablename] = (tablename,fields,args)'
p157
ssg89
S'(self=<DAL uri="mssql4:******@hotkeycc.com/devora">, tablename=\'auth_user\', *fields=(<pydal.objects.Field object>, <pydal.objects.Field object>, <pydal.objects.Field object>, <pydal.objects.Field object>, <pydal.objects.Field object>, <pydal.objects.Field object>, <pydal.objects.Field object>), **args={\'fake_migrate\': False, \'format\': \'%(first_name)s %(last_name)s (%(id)s)\', \'migrate\': True})'
p158
sg91
S'define_table'
p159
sa(dp160
g68
S'C:\\Users\\Brian\\Documents\\Dropshipping\\web2py\\gluon\\packages\\dal\\pydal\\base.py'
p161
sg70
(dp162
S'polymodel'
p163
S'None'
p164
ssg76
I873
sg77
(dp165
I868
S'            try:'
p166
sI869
S'                GLOBAL_LOCKER.acquire()'
p167
sI870
S'                self._lastsql = self._adapter.create_table('
p168
sI871
S'                    table,migrate=migrate,'
p169
sI872
S'                    fake_migrate=fake_migrate,'
p170
sI873
S'                    polymodel=polymodel)'
p171
sI874
S'            finally:'
p172
sI875
S'                GLOBAL_LOCKER.release()'
p173
sI876
S'        else:'
p174
sI877
S'            table._dbt = None'
p175
ssg89
S'(self=<DAL uri="mssql4:******@hotkeycc.com/devora">, tablename=\'auth_user\', *fields=(<pydal.objects.Field object>, <pydal.objects.Field object>, <pydal.objects.Field object>, <pydal.objects.Field object>, <pydal.objects.Field object>, <pydal.objects.Field object>, <pydal.objects.Field object>), **args={\'fake_migrate\': False, \'format\': \'%(first_name)s %(last_name)s (%(id)s)\', \'migrate\': True})'
p176
sg91
S'lazy_define_table'
p177
sa(dp178
g68
S'C:\\Users\\Brian\\Documents\\Dropshipping\\web2py\\gluon\\packages\\dal\\pydal\\adapters\\base.py'
p179
sg70
(dp180
S'query'
p181
S"'CREATE TABLE auth_user(\\n    id INT IDENTITY PRIM...2) NULL,\\n    registration_id VARCHAR(512) NULL\\n);'"
p182
sS'self'
p183
S'<pydal.adapters.mssql.MSSQL4Adapter object>'
p184
sS'table'
p185
S'<Table auth_user (id, first_name, last_name, ema...ration_key, reset_password_key, registration_id)>'
p186
sS'self.create_sequence_and_triggers'
p187
S'<bound method MSSQL4Adapter.create_sequence_and_...s of <pydal.adapters.mssql.MSSQL4Adapter object>>'
p188
ssg76
I482
sg77
(dp189
I480
S'                            query), table)'
p190
sI481
S'            if not fake_migrate:'
p191
sI482
S'                self.create_sequence_and_triggers(query, table)'
p192
sI483
S'                db.commit()'
p193
sI484
S'                # Postgres geom fields are added now,'
p194
sI485
S'                # after the table has been created'
p195
sI486
S'                for query in postcreation_fields:'
p196
sI477
S'            if table._dbt:'
p197
sI478
S"                self.log('timestamp: %s\\n%s\\n'"
p198
sI479
S'                         % (datetime.datetime.today().isoformat(),'
p199
ssg89
S'(self=<pydal.adapters.mssql.MSSQL4Adapter object>, table=<Table auth_user (id, first_name, last_name, ema...ration_key, reset_password_key, registration_id)>, migrate=True, fake_migrate=False, polymodel=None)'
p200
sg91
S'create_table'
p201
sa(dp202
g68
S'C:\\Users\\Brian\\Documents\\Dropshipping\\web2py\\gluon\\packages\\dal\\pydal\\adapters\\base.py'
p203
sg70
(dp204
S'query'
p205
S"'CREATE TABLE auth_user(\\n    id INT IDENTITY PRIM...2) NULL,\\n    registration_id VARCHAR(512) NULL\\n);'"
p206
sS'self'
p207
S'<pydal.adapters.mssql.MSSQL4Adapter object>'
p208
sS'self.execute'
p209
S'<bound method MSSQL4Adapter.execute of <pydal.adapters.mssql.MSSQL4Adapter object>>'
p210
ssg76
I1369
sg77
(dp211
I1364
S''
sI1365
S'    def constraint_name(self, table, fieldname):'
p212
sI1366
S"        return '%s_%s__constraint' % (table,fieldname)"
p213
sI1367
S''
sI1368
S'    def create_sequence_and_triggers(self, query, table, **args):'
p214
sI1369
S'        self.execute(query)'
p215
sI1370
S''
sI1371
S''
sI1372
S'    def log_execute(self, *a, **b):'
p216
sI1373
S'        if not self.connection: raise ValueError(a[0])'
p217
ssg89
S"(self=<pydal.adapters.mssql.MSSQL4Adapter object>, query='CREATE TABLE auth_user(\\n    id INT IDENTITY PRIM...2) NULL,\\n    registration_id VARCHAR(512) NULL\\n);', table=<Table auth_user (id, first_name, last_name, ema...ration_key, reset_password_key, registration_id)>, **args={})"
p218
sg91
S'create_sequence_and_triggers'
p219
sa(dp220
g68
S'C:\\Users\\Brian\\Documents\\Dropshipping\\web2py\\gluon\\packages\\dal\\pydal\\adapters\\base.py'
p221
sg70
(dp222
S'a'
S"('CREATE TABLE auth_user(\\n    id INT IDENTITY PRIM...2) NULL,\\n    registration_id VARCHAR(512) NULL\\n);',)"
p223
sS'self'
p224
S'<pydal.adapters.mssql.MSSQL4Adapter object>'
p225
sS'b'
S'{}'
p226
sS'self.log_execute'
p227
S'<bound method MSSQL4Adapter.log_execute of <pydal.adapters.mssql.MSSQL4Adapter object>>'
p228
ssg76
I1388
sg77
(dp229
I1383
S'        self.db._timings.append((command,time.time()-t0))'
p230
sI1384
S'        del self.db._timings[:-TIMINGSSIZE]'
p231
sI1385
S'        return ret'
p232
sI1386
S''
sI1387
S'    def execute(self, *a, **b):'
p233
sI1388
S'        return self.log_execute(*a, **b)'
p234
sI1389
S''
sI1390
S'    def execute_test_query(self):'
p235
sI1391
S'        return self.execute(self.test_query)'
p236
sI1392
S''
ssg89
S"(self=<pydal.adapters.mssql.MSSQL4Adapter object>, *a=('CREATE TABLE auth_user(\\n    id INT IDENTITY PRIM...2) NULL,\\n    registration_id VARCHAR(512) NULL\\n);',), **b={})"
p237
sg91
S'execute'
p238
sa(dp239
g68
S'C:\\Users\\Brian\\Documents\\Dropshipping\\web2py\\gluon\\packages\\dal\\pydal\\adapters\\base.py'
p240
sg70
(dp241
S'a'
S"('CREATE TABLE auth_user(\\n    id INT IDENTITY PRIM...2) NULL,\\n    registration_id VARCHAR(512) NULL\\n);',)"
p242
sS'b'
g226
sS'self'
p243
S'<pydal.adapters.mssql.MSSQL4Adapter object>'
p244
sS'ret'
p245
g97
sS'command'
p246
S"'CREATE TABLE auth_user(\\n    id INT IDENTITY PRIM...2) NULL,\\n    registration_id VARCHAR(512) NULL\\n);'"
p247
sS'self.get_cursor'
p248
S'<bound method MSSQL4Adapter.get_cursor of <pydal.adapters.mssql.MSSQL4Adapter object>>'
p249
sS').execute'
p250
g97
ssg76
I1382
sg77
(dp251
I1377
S'            command = self.filter_sql_command(command)'
p252
sI1378
S'        if self.db._debug:'
p253
sI1379
S"            self.db.logger.debug('SQL: %s' % command)"
p254
sI1380
S'        self.db._lastsql = command'
p255
sI1381
S'        t0 = time.time()'
p256
sI1382
S'        ret = self.get_cursor().execute(command, *a[1:], **b)'
p257
sI1383
S'        self.db._timings.append((command,time.time()-t0))'
p258
sI1384
S'        del self.db._timings[:-TIMINGSSIZE]'
p259
sI1385
S'        return ret'
p260
sI1386
S''
ssg89
S"(self=<pydal.adapters.mssql.MSSQL4Adapter object>, *a=('CREATE TABLE auth_user(\\n    id INT IDENTITY PRIM...2) NULL,\\n    registration_id VARCHAR(512) NULL\\n);',), **b={})"
p261
sg91
S'log_execute'
p262
sa(dp263
g68
S'C:\\Users\\Brian\\Documents\\Dropshipping\\web2py\\gluon\\contrib\\pypyodbc.py'
p264
sg70
(dp265
S'query_string'
p266
S"'CREATE TABLE auth_user(\\n    id INT IDENTITY PRIM...2) NULL,\\n    registration_id VARCHAR(512) NULL\\n);'"
p267
sS'self'
p268
S'<gluon.contrib.pypyodbc.Cursor instance>'
p269
sS'self.execdirect'
p270
S'<bound method Cursor.execdirect of <gluon.contrib.pypyodbc.Cursor instance>>'
p271
ssg76
I1605
sg77
(dp272
I1600
S'                self._NumOfRows()'
p273
sI1601
S'                self._UpdateDesc()'
p274
sI1602
S'                #self._BindCols()'
p275
sI1603
S''
sI1604
S'        else:'
p276
sI1605
S'            self.execdirect(query_string)'
p277
sI1606
S'        return self'
p278
sI1607
S''
sI1608
S''
sI1609
S'    def _SQLExecute(self):'
p279
ssg89
S"(self=<gluon.contrib.pypyodbc.Cursor instance>, query_string='CREATE TABLE auth_user(\\n    id INT IDENTITY PRIM...2) NULL,\\n    registration_id VARCHAR(512) NULL\\n);', params=None, many_mode=False, call_mode=False)"
p280
sg91
g238
sa(dp281
g68
S'C:\\Users\\Brian\\Documents\\Dropshipping\\web2py\\gluon\\contrib\\pypyodbc.py'
p282
sg70
(dp283
S'self'
p284
S'<gluon.contrib.pypyodbc.Cursor instance>'
p285
sS'global check_success'
p286
S'<function check_success>'
p287
sS'ret'
p288
S'-1'
p289
ssg76
I1631
sg77
(dp290
I1632
S'        self._NumOfRows()'
p291
sI1633
S'        self._UpdateDesc()'
p292
sI1634
S'        #self._BindCols()'
p293
sI1635
S'        return self'
p294
sI1626
S'            c_query_string = wchar_pointer(UCS_buf(query_string))'
p295
sI1627
S'            ret = ODBC_API.SQLExecDirectW(self.stmt_h, c_query_string, len(query_string))'
p296
sI1628
S'        else:'
p297
sI1629
S'            c_query_string = ctypes.c_char_p(query_string)'
p298
sI1630
S'            ret = ODBC_API.SQLExecDirect(self.stmt_h, c_query_string, len(query_string))'
p299
sI1631
S'        check_success(self, ret)'
p300
ssg89
S"(self=<gluon.contrib.pypyodbc.Cursor instance>, query_string='CREATE TABLE auth_user(\\n    id INT IDENTITY PRIM...2) NULL,\\n    registration_id VARCHAR(512) NULL\\n);')"
p301
sg91
S'execdirect'
p302
sa(dp303
g68
S'C:\\Users\\Brian\\Documents\\Dropshipping\\web2py\\gluon\\contrib\\pypyodbc.py'
p304
sg70
(dp305
S'ODBC_obj'
p306
S'<gluon.contrib.pypyodbc.Cursor instance>'
p307
sS'global ctrl_err'
p308
S'<function ctrl_err>'
p309
sS'ret'
p310
S'-1'
p311
sS'ODBC_obj.stmt_h'
p312
S'c_void_p(140638768L)'
p313
sS'global SQL_HANDLE_STMT'
p314
S'3'
sS'ODBC_obj.ansi'
p315
g101
ssg76
I986
sg77
(dp316
I981
S''
sI982
S'def check_success(ODBC_obj, ret):'
p317
sI983
S'    """ Validate return value, if not success, raise exceptions based on the handle """'
p318
sI984
S'    if ret not in (SQL_SUCCESS, SQL_SUCCESS_WITH_INFO, SQL_NO_DATA):'
p319
sI985
S'        if isinstance(ODBC_obj, Cursor):'
p320
sI986
S'            ctrl_err(SQL_HANDLE_STMT, ODBC_obj.stmt_h, ret, ODBC_obj.ansi)'
p321
sI987
S'        elif isinstance(ODBC_obj, Connection):'
p322
sI988
S'            ctrl_err(SQL_HANDLE_DBC, ODBC_obj.dbc_h, ret, ODBC_obj.ansi)'
p323
sI989
S'        else:'
p324
sI990
S'            ctrl_err(SQL_HANDLE_ENV, ODBC_obj, ret, False)'
p325
ssg89
S'(ODBC_obj=<gluon.contrib.pypyodbc.Cursor instance>, ret=-1)'
p326
sg91
S'check_success'
p327
sa(dp328
g68
S'C:\\Users\\Brian\\Documents\\Dropshipping\\web2py\\gluon\\contrib\\pypyodbc.py'
p329
sg70
(dp330
S'state'
p331
S"u'42S01'"
p332
sS'err_text'
p333
S'u"[42S01] [Microsoft][ODBC SQL Server Driver][SQ...ady an object named \'auth_user\' in the database."'
p334
sS'global ProgrammingError'
p335
S"<class 'gluon.contrib.pypyodbc.ProgrammingError'>"
p336
ssg76
I954
sg77
(dp337
I949
S'            #No more data, I can raise'
p338
sI950
S'            #print(err_list[0][1])'
p339
sI951
S'            state = err_list[0][0]'
p340
sI952
S"            err_text = raw_s('[')+state+raw_s('] ')+err_list[0][1]"
p341
sI953
S"            if state[:2] in (raw_s('24'),raw_s('25'),raw_s('42')):"
p342
sI954
S'                raise ProgrammingError(state,err_text)'
p343
sI955
S"            elif state[:2] in (raw_s('22')):"
p344
sI956
S'                raise DataError(state,err_text)'
p345
sI957
S"            elif state[:2] in (raw_s('23')) or state == raw_s('40002'):"
p346
sI958
S'                raise IntegrityError(state,err_text)'
p347
ssg89
S'(ht=3, h=c_void_p(140638768L), val_ret=-1, ansi=False)'
p348
sg91
S'ctrl_err'
p349
sasS'pyver'
p350
S'Python 2.7.12: C:\\Users\\Brian\\Documents\\WinPython-64bit-2.7.12.3Zero\\python-2.7.12.amd64\\python.exe (prefix: C:\\Users\\Brian\\Documents\\WinPython-64bit-2.7.12.3Zero\\python-2.7.12.amd64)'
p351
sS'session'
p352
g63
(S's\x1a\x00\x00\x00<div><table></table></div>'
tRp353
sS'etype'
p354
S"<class 'gluon.contrib.pypyodbc.ProgrammingError'>"
p355
sS'date'
p356
S'Sun Nov 27 19:52:55 2016'
p357
sS'response'
p358
g63
(S'sd\x16\x00\x00<div><table><tr><td style="font-weight:bold;vertical-align:top;">body</td><td style="vertical-align:top;">:</td><td><div>&lt;cStringIO.StringO object at 0x000000000512EAB0&gt;</div></td></tr><tr><td style="font-weight:bold;vertical-align:top;">cookies</td><td style="vertical-align:top;">:</td><td><div><table><tr><td style="font-weight:bold;vertical-align:top;">session_id_dropshipping</td><td style="vertical-align:top;">:</td><td><div>127.0.0.1-640f7ab4-cf89-4700-9c9e-80a42ce8f505<table><tr><td style="font-weight:bold;vertical-align:top;">comment</td><td style="vertical-align:top;">:</td><td><div></div></td></tr><tr><td style="font-weight:bold;vertical-align:top;">domain</td><td style="vertical-align:top;">:</td><td><div></div></td></tr><tr><td style="font-weight:bold;vertical-align:top;">expires</td><td style="vertical-align:top;">:</td><td><div></div></td></tr><tr><td style="font-weight:bold;vertical-align:top;">httponly</td><td style="vertical-align:top;">:</td><td><div></div></td></tr><tr><td style="font-weight:bold;vertical-align:top;">max-age</td><td style="vertical-align:top;">:</td><td><div></div></td></tr><tr><td style="font-weight:bold;vertical-align:top;">path</td><td style="vertical-align:top;">:</td><td><div>/</div></td></tr><tr><td style="font-weight:bold;vertical-align:top;">secure</td><td style="vertical-align:top;">:</td><td><div></div></td></tr><tr><td style="font-weight:bold;vertical-align:top;">version</td><td style="vertical-align:top;">:</td><td><div></div></td></tr></table></div></td></tr></table></div></td></tr><tr><td style="font-weight:bold;vertical-align:top;">delimiters</td><td style="vertical-align:top;">:</td><td><div><table><tr><td><div>{{</div></td></tr><tr><td><div>}}</div></td></tr></table></div></td></tr><tr><td style="font-weight:bold;vertical-align:top;">files</td><td style="vertical-align:top;">:</td><td><div><table></table></div></td></tr><tr><td style="font-weight:bold;vertical-align:top;">flash</td><td style="vertical-align:top;">:</td><td><div></div></td></tr><tr><td style="font-weight:bold;vertical-align:top;">form_label_separator</td><td style="vertical-align:top;">:</td><td><div></div></td></tr><tr><td style="font-weight:bold;vertical-align:top;">formstyle</td><td style="vertical-align:top;">:</td><td><div>bootstrap3_inline</div></td></tr><tr><td style="font-weight:bold;vertical-align:top;">generic_patterns</td><td style="vertical-align:top;">:</td><td><div><table><tr><td><div>*</div></td></tr></table></div></td></tr><tr><td style="font-weight:bold;vertical-align:top;">headers</td><td style="vertical-align:top;">:</td><td><div><table><tr><td style="font-weight:bold;vertical-align:top;">X-Powered-By</td><td style="vertical-align:top;">:</td><td><div>web2py</div></td></tr></table></div></td></tr><tr><td style="font-weight:bold;vertical-align:top;">menu</td><td style="vertical-align:top;">:</td><td><div><table></table></div></td></tr><tr><td style="font-weight:bold;vertical-align:top;">meta</td><td style="vertical-align:top;">:</td><td><div><table></table></div></td></tr><tr><td style="font-weight:bold;vertical-align:top;">models_to_run</td><td style="vertical-align:top;">:</td><td><div><table><tr><td><div>^\\w+\\.py$</div></td></tr><tr><td><div>^default/\\w+\\.py$</div></td></tr><tr><td><div>^default/index/\\w+\\.py$</div></td></tr></table></div></td></tr><tr><td style="font-weight:bold;vertical-align:top;">postprocessing</td><td style="vertical-align:top;">:</td><td><div><table></table></div></td></tr><tr><td style="font-weight:bold;vertical-align:top;">session_client</td><td style="vertical-align:top;">:</td><td><div>127.0.0.1</div></td></tr><tr><td style="font-weight:bold;vertical-align:top;">session_cookie_compression_level</td><td style="vertical-align:top;">:</td><td><div>None</div></td></tr><tr><td style="font-weight:bold;vertical-align:top;">session_cookie_expires</td><td style="vertical-align:top;">:</td><td><div>None</div></td></tr><tr><td style="font-weight:bold;vertical-align:top;">session_data_name</td><td style="vertical-align:top;">:</td><td><div>session_data_dropshipping</div></td></tr><tr><td style="font-weight:bold;vertical-align:top;">session_file</td><td style="vertical-align:top;">:</td><td><div>None</div></td></tr><tr><td style="font-weight:bold;vertical-align:top;">session_filename</td><td style="vertical-align:top;">:</td><td><div>C:\\Users\\Brian\\Documents\\Dropshipping\\web2py\\applications\\Dropshipping\\sessions\\127.0.0.1-640f7ab4-cf89-4700-9c9e-80a42ce8f505</div></td></tr><tr><td style="font-weight:bold;vertical-align:top;">session_hash</td><td style="vertical-align:top;">:</td><td><div>c0762cbf4baf7f9af97c051e7fcb8083</div></td></tr><tr><td style="font-weight:bold;vertical-align:top;">session_id</td><td style="vertical-align:top;">:</td><td><div>127.0.0.1-640f7ab4-cf89-4700-9c9e-80a42ce8f505</div></td></tr><tr><td style="font-weight:bold;vertical-align:top;">session_id_name</td><td style="vertical-align:top;">:</td><td><div>session_id_dropshipping</div></td></tr><tr><td style="font-weight:bold;vertical-align:top;">session_masterapp</td><td style="vertical-align:top;">:</td><td><div>Dropshipping</div></td></tr><tr><td style="font-weight:bold;vertical-align:top;">session_new</td><td style="vertical-align:top;">:</td><td><div>True</div></td></tr><tr><td style="font-weight:bold;vertical-align:top;">session_storage_type</td><td style="vertical-align:top;">:</td><td><div>file</div></td></tr><tr><td style="font-weight:bold;vertical-align:top;">status</td><td style="vertical-align:top;">:</td><td><div>200</div></td></tr><tr><td style="font-weight:bold;vertical-align:top;">view</td><td style="vertical-align:top;">:</td><td><div>default/index.html</div></td></tr></table></div>'
tRp359
sS'locals'
p360
(dp361
S'err_list'
p362
S'[(u\'42S01\', u"[Microsoft][ODBC SQL Server Driver][SQL Server...ady an object named \'auth_user\' in the database.", 2714)]'
p363
sS'h'
S'c_void_p(140638768L)'
p364
sS'raw_s'
p365
S"<type 'unicode'>"
p366
sS'ht'
p367
S'3'
sS'Buffer_len'
p368
S'c_short(0)'
p369
sS'ansi'
p370
g101
sS'state'
p371
S"u'42S01'"
p372
sS'ODBC_func'
p373
S'<_FuncPtr object>'
p374
sS'ret'
p375
S'100'
p376
sS'Message'
p377
S'<ctypes.c_wchar_Array_4096 object>'
p378
sS'val_ret'
p379
S'-1'
p380
sS'number_errors'
p381
S'2'
sS'NativeError'
p382
S'c_long(2714)'
p383
sS'err_text'
p384
S'u"[42S01] [Microsoft][ODBC SQL Server Driver][SQ...ady an object named \'auth_user\' in the database."'
p385
sssS'traceback'
p386
S'Traceback (most recent call last):\n  File "C:\\Users\\Brian\\Documents\\Dropshipping\\web2py\\gluon\\restricted.py", line 227, in restricted\n    exec ccode in environment\n  File "C:\\Users\\Brian\\Documents\\Dropshipping\\web2py\\applications\\Dropshipping\\models\\db.py", line 93, in <module>\n    auth.define_tables(username=False, signature=False)\n  File "C:\\Users\\Brian\\Documents\\Dropshipping\\web2py\\gluon\\tools.py", line 2376, in define_tables\n    format=\'%(first_name)s %(last_name)s (%(id)s)\'))\n  File "C:\\Users\\Brian\\Documents\\Dropshipping\\web2py\\gluon\\packages\\dal\\pydal\\base.py", line 834, in define_table\n    table = self.lazy_define_table(tablename,*fields,**args)\n  File "C:\\Users\\Brian\\Documents\\Dropshipping\\web2py\\gluon\\packages\\dal\\pydal\\base.py", line 873, in lazy_define_table\n    polymodel=polymodel)\n  File "C:\\Users\\Brian\\Documents\\Dropshipping\\web2py\\gluon\\packages\\dal\\pydal\\adapters\\base.py", line 482, in create_table\n    self.create_sequence_and_triggers(query, table)\n  File "C:\\Users\\Brian\\Documents\\Dropshipping\\web2py\\gluon\\packages\\dal\\pydal\\adapters\\base.py", line 1369, in create_sequence_and_triggers\n    self.execute(query)\n  File "C:\\Users\\Brian\\Documents\\Dropshipping\\web2py\\gluon\\packages\\dal\\pydal\\adapters\\base.py", line 1388, in execute\n    return self.log_execute(*a, **b)\n  File "C:\\Users\\Brian\\Documents\\Dropshipping\\web2py\\gluon\\packages\\dal\\pydal\\adapters\\base.py", line 1382, in log_execute\n    ret = self.get_cursor().execute(command, *a[1:], **b)\n  File "C:\\Users\\Brian\\Documents\\Dropshipping\\web2py\\gluon\\contrib\\pypyodbc.py", line 1605, in execute\n    self.execdirect(query_string)\n  File "C:\\Users\\Brian\\Documents\\Dropshipping\\web2py\\gluon\\contrib\\pypyodbc.py", line 1631, in execdirect\n    check_success(self, ret)\n  File "C:\\Users\\Brian\\Documents\\Dropshipping\\web2py\\gluon\\contrib\\pypyodbc.py", line 986, in check_success\n    ctrl_err(SQL_HANDLE_STMT, ODBC_obj.stmt_h, ret, ODBC_obj.ansi)\n  File "C:\\Users\\Brian\\Documents\\Dropshipping\\web2py\\gluon\\contrib\\pypyodbc.py", line 954, in ctrl_err\n    raise ProgrammingError(state,err_text)\nProgrammingError: (u\'42S01\', u"[42S01] [Microsoft][ODBC SQL Server Driver][SQL Server]There is already an object named \'auth_user\' in the database.")\n'
p387
s.